(dp0
I8
(dp1
S'a'
p2
(lp3
(iworkloadfiles.workloads
Workload
p4
(dp5
S'benchmarks'
p6
(lp7
<<<<<<< HEAD
S'crafty0'
p8
aS'twolf0'
p9
aS's6-sphinx3'
p10
aS's6-astar'
p11
aS's6-gamess'
p12
aS'lucas0'
p13
aS's6-h264ref'
p14
aS'bzip0'
=======
S's6-sjeng'
p8
aS's6-zeusmp'
p9
aS'parser0'
p10
aS's6-sphinx3'
p11
aS's6-dealII'
p12
aS'equake0'
p13
aS's6-povray'
p14
aS'wupwise0'
>>>>>>> fd92f31ff7caf1cd4be4739db7e61e384a40182c
p15
asba(iworkloadfiles.workloads
Workload
p16
(dp17
g6
(lp18
<<<<<<< HEAD
S's6-gobmk'
p19
aS's6-namd'
p20
aS's6-calculix'
p21
ag10
aS'apsi0'
p22
aS's6-cactusADM'
p23
aS's6-dealII'
p24
aS's6-povray'
p25
asba(iworkloadfiles.workloads
Workload
p26
(dp27
g6
(lp28
S's6-gemsFDTD'
p29
aS's6-gcc'
p30
aS'sixtrack0'
p31
aS's6-zeusmp'
p32
aS's6-sjeng'
p33
ag15
ag12
aS's6-leslie3d'
p34
asba(iworkloadfiles.workloads
Workload
p35
(dp36
g6
(lp37
S'vortex10'
p38
aS's6-soplex'
p39
aS's6-bwaves'
p40
aS's6-mcf'
p41
aS's6-bzip2'
p42
ag30
aS'wupwise0'
p43
ag25
asba(iworkloadfiles.workloads
Workload
p44
(dp45
g6
(lp46
g10
aS'mesa0'
p47
aS'gcc0'
p48
aS'fma3d0'
p49
ag15
ag24
aS'mgrid0'
p50
ag40
asba(iworkloadfiles.workloads
Workload
p51
(dp52
g6
(lp53
S'perlbmk0'
p54
aS'applu0'
p55
aS's6-gromacs'
p56
aS'swim0'
p57
aS's6-hmmer'
p58
ag29
aS's6-lbm'
p59
ag24
asba(iworkloadfiles.workloads
Workload
p60
(dp61
g6
(lp62
S's6-tonto'
p63
aS's6-milc'
p64
ag59
ag48
ag54
ag12
ag21
aS'gzip0'
p65
asba(iworkloadfiles.workloads
Workload
p66
(dp67
g6
(lp68
g13
ag11
ag38
ag23
aS'art0'
p69
ag34
ag56
ag22
asba(iworkloadfiles.workloads
Workload
p70
(dp71
g6
(lp72
g34
ag29
aS'gap0'
p73
ag30
ag50
ag48
ag64
ag40
asba(iworkloadfiles.workloads
Workload
p74
(dp75
g6
(lp76
g58
ag65
ag33
aS'parser0'
p77
ag48
aS'facerec0'
p78
aS'vpr0'
p79
ag32
asbasS'h'
p80
(lp81
(iworkloadfiles.workloads
Workload
p82
(dp83
g6
(lp84
g41
ag58
ag42
ag59
ag42
aS'galgel0'
p85
ag69
ag9
asba(iworkloadfiles.workloads
Workload
p86
(dp87
g6
(lp88
g85
ag85
ag59
ag59
ag10
ag9
aS'ammp0'
p89
ag69
asba(iworkloadfiles.workloads
Workload
p90
(dp91
g6
(lp92
g59
ag89
ag69
ag10
ag10
ag9
ag58
ag89
asba(iworkloadfiles.workloads
Workload
p93
(dp94
g6
(lp95
g42
ag9
ag9
ag89
ag85
ag42
ag85
ag59
asba(iworkloadfiles.workloads
Workload
p96
(dp97
g6
(lp98
g79
ag41
ag58
ag41
ag69
ag9
ag59
ag79
asba(iworkloadfiles.workloads
Workload
p99
(dp100
g6
(lp101
g69
ag58
ag85
ag10
ag42
ag42
ag58
ag41
asba(iworkloadfiles.workloads
Workload
p102
(dp103
g6
(lp104
g10
ag59
ag42
ag79
ag89
ag41
ag42
ag85
asba(iworkloadfiles.workloads
Workload
p105
(dp106
g6
(lp107
g79
ag42
ag69
ag41
ag89
ag41
ag10
ag85
asba(iworkloadfiles.workloads
Workload
p108
(dp109
g6
(lp110
g69
ag58
ag41
ag69
ag58
ag59
ag79
ag10
asba(iworkloadfiles.workloads
Workload
p111
(dp112
g6
(lp113
g85
ag41
ag69
ag59
ag9
ag42
ag9
ag41
asba(iworkloadfiles.workloads
Workload
p114
(dp115
g6
(lp116
g41
ag59
ag58
ag42
ag41
ag69
ag42
ag10
asba(iworkloadfiles.workloads
Workload
p117
(dp118
g6
(lp119
g41
ag10
ag41
ag69
ag69
ag89
ag59
ag42
asba(iworkloadfiles.workloads
Workload
p120
(dp121
g6
(lp122
g85
ag42
ag85
ag41
ag41
ag42
ag10
ag79
asba(iworkloadfiles.workloads
Workload
p123
(dp124
g6
(lp125
g10
ag59
ag9
ag58
ag85
ag59
ag10
ag79
asba(iworkloadfiles.workloads
Workload
p126
(dp127
g6
(lp128
g10
ag69
ag79
ag10
ag89
ag41
ag59
ag89
asba(iworkloadfiles.workloads
Workload
p129
(dp130
g6
(lp131
g58
ag9
ag42
ag85
ag41
ag85
ag58
ag69
asba(iworkloadfiles.workloads
Workload
p132
(dp133
g6
(lp134
g85
ag59
ag69
ag58
ag10
ag89
ag59
ag58
asba(iworkloadfiles.workloads
Workload
p135
(dp136
g6
(lp137
g89
ag10
ag85
ag42
ag89
ag41
ag59
ag10
asba(iworkloadfiles.workloads
Workload
p138
(dp139
g6
(lp140
g69
ag42
ag41
ag79
ag41
ag79
ag10
ag58
asba(iworkloadfiles.workloads
Workload
p141
(dp142
g6
(lp143
g89
ag89
ag59
ag42
ag58
ag85
ag41
ag9
asba(iworkloadfiles.workloads
Workload
p144
(dp145
g6
(lp146
g89
ag89
ag58
ag69
ag79
ag59
ag9
ag10
asba(iworkloadfiles.workloads
Workload
p147
(dp148
g6
(lp149
g85
ag79
ag69
ag10
ag58
ag79
ag58
ag10
=======
S'ammp0'
p19
aS'eon0'
p20
ag13
aS's6-gcc'
p21
aS'perlbmk0'
p22
aS's6-cactusADM'
p23
aS'apsi0'
p24
aS's6-h264ref'
p25
asba(iworkloadfiles.workloads
Workload
p26
(dp27
g6
(lp28
g14
ag8
aS's6-gromacs'
p29
aS'vortex10'
p30
aS'gcc0'
p31
aS's6-libquantum'
p32
aS's6-omnetpp'
p33
aS'swim0'
p34
asba(iworkloadfiles.workloads
Workload
p35
(dp36
g6
(lp37
S'sixtrack0'
p38
ag22
ag24
aS'vpr0'
p39
aS's6-soplex'
p40
aS'gap0'
p41
aS's6-bwaves'
p42
aS'mesa0'
p43
asba(iworkloadfiles.workloads
Workload
p44
(dp45
g6
(lp46
g15
aS'twolf0'
p47
aS's6-lbm'
p48
aS'crafty0'
p49
ag9
ag25
ag23
ag42
asba(iworkloadfiles.workloads
Workload
p50
(dp51
g6
(lp52
g23
aS'applu0'
p53
aS's6-hmmer'
p54
aS's6-astar'
p55
ag40
ag25
ag9
ag41
asba(iworkloadfiles.workloads
Workload
p56
(dp57
g6
(lp58
g48
ag47
ag20
ag38
ag13
ag33
aS's6-bzip2'
p59
ag29
asba(iworkloadfiles.workloads
Workload
p60
(dp61
g6
(lp62
g33
ag9
ag21
aS'art0'
p63
ag43
ag55
ag59
ag30
>>>>>>> fd92f31ff7caf1cd4be4739db7e61e384a40182c
asba(iworkloadfiles.workloads
Workload
p150
(dp151
g6
<<<<<<< HEAD
(lp152
g89
ag59
ag69
ag9
ag58
ag10
ag42
ag41
asba(iworkloadfiles.workloads
Workload
p153
(dp154
g6
(lp155
g69
ag58
ag41
ag69
ag10
ag89
ag79
ag9
asba(iworkloadfiles.workloads
Workload
p156
(dp157
g6
(lp158
g41
ag85
ag58
ag85
ag89
ag89
ag79
ag42
asbasS's'
p159
(lp160
(iworkloadfiles.workloads
Workload
p161
(dp162
g6
(lp163
g29
ag13
ag57
aS's6-omnetpp'
p164
ag64
ag32
ag164
ag13
asba(iworkloadfiles.workloads
Workload
p165
(dp166
g6
(lp167
g32
ag57
ag23
ag55
ag57
ag32
ag23
ag13
asba(iworkloadfiles.workloads
Workload
p168
(dp169
g6
(lp170
g55
ag64
ag40
ag29
ag57
ag164
ag40
ag32
asba(iworkloadfiles.workloads
Workload
p171
(dp172
g6
(lp173
g32
ag164
ag13
ag29
ag32
ag164
ag23
aS'equake0'
p174
asba(iworkloadfiles.workloads
Workload
p175
(dp176
g6
(lp177
g57
ag55
ag23
ag164
ag55
ag64
ag57
ag32
asba(iworkloadfiles.workloads
Workload
p178
(dp179
g6
(lp180
g23
ag55
ag32
ag29
ag40
ag55
ag23
ag174
asba(iworkloadfiles.workloads
Workload
p181
(dp182
g6
(lp183
g55
ag29
ag164
ag32
ag164
ag57
ag55
ag40
asba(iworkloadfiles.workloads
Workload
p184
(dp185
g6
(lp186
g64
ag57
ag32
ag164
ag29
ag29
ag23
ag40
asba(iworkloadfiles.workloads
Workload
p187
(dp188
g6
(lp189
g32
ag32
ag55
ag64
ag55
ag64
ag23
ag40
asba(iworkloadfiles.workloads
Workload
p190
(dp191
g6
(lp192
g164
ag32
ag55
ag29
ag57
ag174
ag32
ag40
asba(iworkloadfiles.workloads
Workload
p193
(dp194
g6
(lp195
g57
ag23
ag32
ag13
ag40
ag40
ag13
ag23
asba(iworkloadfiles.workloads
Workload
p196
(dp197
g6
(lp198
g29
ag164
ag32
ag57
ag64
ag32
ag13
ag174
asba(iworkloadfiles.workloads
Workload
p199
(dp200
g6
(lp201
g32
ag23
ag32
ag40
ag29
ag55
ag29
ag174
asba(iworkloadfiles.workloads
Workload
p202
(dp203
g6
(lp204
g23
ag164
ag64
ag64
ag174
ag174
ag23
ag164
asba(iworkloadfiles.workloads
Workload
p205
(dp206
g6
(lp207
g174
ag55
ag32
ag23
ag64
ag64
ag55
ag13
asba(iworkloadfiles.workloads
Workload
p208
(dp209
g6
(lp210
g32
ag57
ag64
ag57
ag32
ag55
ag29
ag13
asba(iworkloadfiles.workloads
Workload
p211
(dp212
g6
(lp213
g23
ag29
ag57
ag55
ag40
ag164
ag57
ag55
asba(iworkloadfiles.workloads
Workload
p214
(dp215
g6
(lp216
g64
ag23
ag23
ag64
ag40
ag40
ag55
ag174
asba(iworkloadfiles.workloads
Workload
p217
(dp218
g6
(lp219
g174
ag29
ag40
ag29
ag32
ag40
ag32
ag57
asba(iworkloadfiles.workloads
Workload
p220
(dp221
g6
(lp222
g23
ag29
ag23
ag40
ag164
ag164
ag32
ag64
asba(iworkloadfiles.workloads
Workload
p223
(dp224
g6
(lp225
g164
ag164
ag55
ag40
ag64
ag29
ag55
ag23
asba(iworkloadfiles.workloads
Workload
p226
(dp227
g6
(lp228
g174
ag23
ag13
ag40
ag164
ag23
ag64
ag64
asba(iworkloadfiles.workloads
Workload
p229
(dp230
g6
(lp231
g29
ag64
ag55
ag57
ag40
ag23
ag164
ag32
asba(iworkloadfiles.workloads
Workload
p232
(dp233
g6
(lp234
g55
ag23
ag40
ag32
ag174
ag57
ag174
ag40
asba(iworkloadfiles.workloads
Workload
p235
(dp236
g6
(lp237
g64
ag57
ag40
ag57
ag32
ag32
ag64
ag40
asbasS'm'
p238
(lp239
(iworkloadfiles.workloads
Workload
p240
(dp241
g6
(lp242
g15
ag11
aS's6-libquantum'
p243
ag20
ag22
ag30
ag43
ag24
asba(iworkloadfiles.workloads
Workload
p244
(dp245
g6
(lp246
g78
ag14
ag30
ag77
ag24
ag22
ag49
ag56
asba(iworkloadfiles.workloads
Workload
p247
(dp248
g6
(lp249
g15
ag43
ag14
ag38
ag39
ag30
ag22
ag11
asba(iworkloadfiles.workloads
Workload
p250
(dp251
g6
(lp252
g78
ag43
ag77
ag73
ag34
ag20
ag22
ag47
asba(iworkloadfiles.workloads
Workload
p253
(dp254
g6
(lp255
g78
ag24
ag243
ag49
ag14
ag11
ag22
ag43
asba(iworkloadfiles.workloads
Workload
p256
(dp257
g6
(lp258
g30
ag50
ag39
ag38
ag24
ag243
ag43
ag11
asba(iworkloadfiles.workloads
Workload
p259
(dp260
g6
(lp261
g30
ag77
ag11
ag47
ag24
ag38
ag14
ag49
asba(iworkloadfiles.workloads
Workload
p262
(dp263
g6
(lp264
g73
ag11
ag30
ag43
ag24
ag14
ag77
ag243
asba(iworkloadfiles.workloads
Workload
p265
(dp266
g6
(lp267
g78
ag73
ag34
ag48
ag47
ag49
ag14
ag24
asba(iworkloadfiles.workloads
Workload
p268
(dp269
g6
(lp270
g11
ag78
ag77
ag38
ag22
ag49
ag24
ag30
asbasS'l'
p271
(lp272
(iworkloadfiles.workloads
Workload
p273
(dp274
g6
(lp275
S'eon0'
p276
ag63
ag65
ag33
ag276
ag65
ag21
ag54
asba(iworkloadfiles.workloads
Workload
p277
(dp278
g6
(lp279
g65
ag276
ag21
ag19
ag31
ag33
ag8
ag25
asba(iworkloadfiles.workloads
Workload
p280
(dp281
g6
(lp282
g21
ag31
ag21
ag25
ag63
ag63
ag8
ag19
asba(iworkloadfiles.workloads
Workload
p283
(dp284
g6
(lp285
g276
ag12
ag65
ag12
ag31
ag54
ag63
ag63
asba(iworkloadfiles.workloads
Workload
p286
(dp287
g6
(lp288
g54
ag12
ag31
ag54
ag12
ag25
ag63
ag33
asba(iworkloadfiles.workloads
Workload
p289
(dp290
g6
(lp291
g21
ag63
ag276
ag54
ag8
ag65
ag21
ag25
asba(iworkloadfiles.workloads
Workload
p292
(dp293
g6
(lp294
g21
ag25
ag12
ag276
ag21
ag12
ag19
ag31
asba(iworkloadfiles.workloads
Workload
p295
(dp296
g6
(lp297
g21
ag54
ag33
ag8
ag65
ag63
ag12
ag33
asba(iworkloadfiles.workloads
Workload
p298
(dp299
g6
(lp300
g8
ag25
ag33
ag33
ag54
ag63
ag8
ag25
asba(iworkloadfiles.workloads
Workload
p301
(dp302
g6
(lp303
g19
ag25
ag63
ag33
ag65
ag25
ag54
ag65
asbassI2
(dp304
g2
(lp305
(iworkloadfiles.workloads
Workload
p306
(dp307
g6
(lp308
g243
ag56
asba(iworkloadfiles.workloads
Workload
p309
(dp310
g6
(lp311
g33
ag32
asba(iworkloadfiles.workloads
Workload
p312
(dp313
g6
(lp314
g19
ag64
asba(iworkloadfiles.workloads
Workload
p315
(dp316
g6
(lp317
g21
ag54
asba(iworkloadfiles.workloads
Workload
p318
(dp319
g6
(lp320
g21
ag8
asba(iworkloadfiles.workloads
Workload
p321
(dp322
g6
(lp323
g38
ag39
asba(iworkloadfiles.workloads
Workload
p324
(dp325
g6
(lp326
g85
ag63
asba(iworkloadfiles.workloads
Workload
p327
(dp328
g6
(lp329
g32
ag23
asba(iworkloadfiles.workloads
Workload
p330
(dp331
g6
(lp332
g10
ag48
asba(iworkloadfiles.workloads
Workload
p333
(dp334
g6
(lp335
g34
ag77
asbasg80
(lp336
(iworkloadfiles.workloads
Workload
p337
(dp338
g6
(lp339
g42
ag89
asba(iworkloadfiles.workloads
Workload
p340
(dp341
g6
(lp342
g10
ag89
asba(iworkloadfiles.workloads
Workload
p343
(dp344
g6
(lp345
g58
ag42
asba(iworkloadfiles.workloads
Workload
p346
(dp347
g6
(lp348
g10
ag59
asba(iworkloadfiles.workloads
Workload
p349
(dp350
g6
(lp351
g85
ag69
asba(iworkloadfiles.workloads
Workload
p352
(dp353
g6
(lp354
g9
ag42
asba(iworkloadfiles.workloads
Workload
p355
(dp356
g6
(lp357
g59
ag58
asba(iworkloadfiles.workloads
Workload
p358
(dp359
g6
(lp360
g59
ag42
asba(iworkloadfiles.workloads
Workload
p361
(dp362
g6
(lp363
g89
ag85
asba(iworkloadfiles.workloads
Workload
p364
(dp365
g6
(lp366
g69
ag41
asba(iworkloadfiles.workloads
Workload
p367
(dp368
g6
(lp369
g42
ag41
asba(iworkloadfiles.workloads
Workload
p370
(dp371
g6
(lp372
g9
ag89
asba(iworkloadfiles.workloads
Workload
p373
(dp374
g6
(lp375
g10
ag58
asba(iworkloadfiles.workloads
Workload
p376
(dp377
g6
(lp378
g41
ag9
asba(iworkloadfiles.workloads
Workload
p379
(dp380
g6
(lp381
g69
ag59
asba(iworkloadfiles.workloads
Workload
p382
(dp383
g6
(lp384
g9
ag41
asba(iworkloadfiles.workloads
Workload
p385
(dp386
g6
(lp387
g41
ag10
asba(iworkloadfiles.workloads
Workload
p388
(dp389
g6
(lp390
g9
ag69
asba(iworkloadfiles.workloads
Workload
p391
(dp392
g6
(lp393
g9
ag89
asba(iworkloadfiles.workloads
Workload
p394
(dp395
g6
(lp396
g69
ag89
asba(iworkloadfiles.workloads
Workload
p397
(dp398
g6
(lp399
g69
ag89
asba(iworkloadfiles.workloads
Workload
p400
(dp401
g6
(lp402
g9
ag85
asba(iworkloadfiles.workloads
Workload
p403
(dp404
g6
(lp405
g85
ag58
asba(iworkloadfiles.workloads
Workload
p406
(dp407
g6
(lp408
g41
ag10
asba(iworkloadfiles.workloads
Workload
p409
(dp410
g6
(lp411
g10
ag69
asbasg159
(lp412
(iworkloadfiles.workloads
Workload
p413
(dp414
g6
(lp415
g13
ag57
asba(iworkloadfiles.workloads
Workload
p416
(dp417
g6
(lp418
g32
ag29
asba(iworkloadfiles.workloads
Workload
p419
(dp420
g6
(lp421
g164
ag55
asba(iworkloadfiles.workloads
Workload
p422
(dp423
g6
(lp424
g174
ag29
asba(iworkloadfiles.workloads
Workload
p425
(dp426
g6
(lp427
g40
ag164
asba(iworkloadfiles.workloads
Workload
p428
(dp429
g6
(lp430
g13
ag57
=======
(lp66
g23
aS's6-mcf'
p67
ag20
aS's6-namd'
p68
ag13
aS'bzip0'
p69
ag43
ag21
>>>>>>> fd92f31ff7caf1cd4be4739db7e61e384a40182c
asba(iworkloadfiles.workloads
Workload
p431
(dp432
g6
<<<<<<< HEAD
(lp433
g174
ag164
asba(iworkloadfiles.workloads
Workload
p434
(dp435
g6
(lp436
g174
ag23
asba(iworkloadfiles.workloads
Workload
p437
(dp438
g6
(lp439
g64
ag32
asba(iworkloadfiles.workloads
Workload
p440
(dp441
g6
(lp442
g64
ag164
asba(iworkloadfiles.workloads
Workload
p443
(dp444
g6
(lp445
g29
ag32
asba(iworkloadfiles.workloads
Workload
p446
(dp447
g6
(lp448
g55
ag64
asba(iworkloadfiles.workloads
Workload
p449
(dp450
g6
(lp451
g23
ag57
asba(iworkloadfiles.workloads
Workload
p452
(dp453
g6
(lp454
g57
ag23
asba(iworkloadfiles.workloads
Workload
p455
(dp456
g6
(lp457
g32
ag57
asba(iworkloadfiles.workloads
Workload
p458
(dp459
g6
(lp460
g23
ag164
asba(iworkloadfiles.workloads
Workload
p461
(dp462
g6
(lp463
g23
ag29
=======
(lp72
g34
ag13
aS'fma3d0'
p73
ag40
ag54
ag22
ag42
aS's6-calculix'
p74
asbasS'h'
p75
(lp76
(iworkloadfiles.workloads
Workload
p77
(dp78
g6
(lp79
g59
ag67
ag39
ag59
ag54
ag54
ag19
ag39
asba(iworkloadfiles.workloads
Workload
p80
(dp81
g6
(lp82
g47
ag48
ag54
ag11
ag39
ag47
ag39
ag63
asba(iworkloadfiles.workloads
Workload
p83
(dp84
g6
(lp85
g54
ag67
ag63
ag19
ag11
ag67
ag19
ag59
asba(iworkloadfiles.workloads
Workload
p86
(dp87
g6
(lp88
g47
ag67
ag47
ag59
ag67
ag63
ag48
ag48
asba(iworkloadfiles.workloads
Workload
p89
(dp90
g6
(lp91
g63
aS'galgel0'
p92
ag48
ag67
ag47
ag92
ag19
ag63
asba(iworkloadfiles.workloads
Workload
p93
(dp94
g6
(lp95
g54
ag47
ag54
ag39
ag59
ag48
ag59
ag11
asba(iworkloadfiles.workloads
Workload
p96
(dp97
g6
(lp98
g59
ag19
ag11
ag67
ag48
ag54
ag59
ag63
asba(iworkloadfiles.workloads
Workload
p99
(dp100
g6
(lp101
g92
ag54
ag48
ag11
ag54
ag11
ag39
ag48
asba(iworkloadfiles.workloads
Workload
p102
(dp103
g6
(lp104
g19
ag59
ag48
ag54
ag47
ag47
ag19
ag48
>>>>>>> fd92f31ff7caf1cd4be4739db7e61e384a40182c
asba(iworkloadfiles.workloads
Workload
p464
(dp465
g6
<<<<<<< HEAD
(lp466
g57
ag64
asba(iworkloadfiles.workloads
Workload
p467
(dp468
g6
(lp469
g32
ag57
asba(iworkloadfiles.workloads
Workload
p470
(dp471
g6
(lp472
g174
ag13
=======
(lp107
g39
ag59
ag54
ag54
ag67
ag11
ag11
ag92
asbasS's'
p108
(lp109
(iworkloadfiles.workloads
Workload
p110
(dp111
g6
(lp112
g9
aS's6-milc'
p113
aS's6-gemsFDTD'
p114
ag13
ag33
ag113
ag33
ag23
asba(iworkloadfiles.workloads
Workload
p115
(dp116
g6
(lp117
g42
ag9
ag42
ag9
ag114
ag23
aS'lucas0'
p118
ag118
asba(iworkloadfiles.workloads
Workload
p119
(dp120
g6
(lp121
g113
ag118
ag13
ag53
ag13
ag33
ag34
ag118
asba(iworkloadfiles.workloads
Workload
p122
(dp123
g6
(lp124
g13
ag33
ag118
ag118
ag34
ag114
ag33
ag53
asba(iworkloadfiles.workloads
Workload
p125
(dp126
g6
(lp127
g9
ag23
ag42
ag42
ag113
ag114
ag113
ag23
asba(iworkloadfiles.workloads
Workload
p128
(dp129
g6
(lp130
g114
ag113
ag113
ag33
ag33
ag13
ag42
ag114
asba(iworkloadfiles.workloads
Workload
p131
(dp132
g6
(lp133
g113
ag34
ag33
ag23
ag42
ag53
ag42
ag113
asba(iworkloadfiles.workloads
Workload
p134
(dp135
g6
(lp136
g9
ag23
ag118
ag53
ag33
ag53
ag42
ag13
asba(iworkloadfiles.workloads
Workload
p137
(dp138
g6
(lp139
g113
ag9
ag53
ag113
ag9
ag23
ag53
ag13
asba(iworkloadfiles.workloads
Workload
p140
(dp141
g6
(lp142
g114
ag42
ag113
ag42
ag34
ag114
ag9
ag23
asbasS'm'
p143
(lp144
(iworkloadfiles.workloads
Workload
p145
(dp146
g6
(lp147
g41
ag31
aS'mgrid0'
p148
ag24
ag43
ag10
ag69
ag12
asba(iworkloadfiles.workloads
Workload
p149
(dp150
g6
(lp151
g148
aS'facerec0'
p152
ag55
ag68
ag41
ag43
ag73
aS's6-leslie3d'
p153
asba(iworkloadfiles.workloads
Workload
p154
(dp155
g6
(lp156
g29
ag32
ag21
ag41
ag24
ag10
ag31
ag68
asba(iworkloadfiles.workloads
Workload
p157
(dp158
g6
(lp159
g73
ag15
ag30
ag32
ag43
ag152
ag69
ag41
>>>>>>> fd92f31ff7caf1cd4be4739db7e61e384a40182c
asba(iworkloadfiles.workloads
Workload
p473
(dp474
g6
<<<<<<< HEAD
(lp475
g174
ag23
asba(iworkloadfiles.workloads
Workload
p476
(dp477
g6
(lp478
g57
ag40
asba(iworkloadfiles.workloads
Workload
p479
(dp480
g6
(lp481
g40
ag13
asba(iworkloadfiles.workloads
Workload
p482
(dp483
g6
(lp484
g64
ag174
=======
(lp162
g31
ag43
ag68
ag30
ag41
ag69
ag32
ag152
asba(iworkloadfiles.workloads
Workload
p163
(dp164
g6
(lp165
g41
ag25
ag40
ag43
ag68
ag73
ag152
ag24
asba(iworkloadfiles.workloads
Workload
p166
(dp167
g6
(lp168
g12
ag148
ag32
ag73
ag152
ag69
ag40
ag21
asba(iworkloadfiles.workloads
Workload
p169
(dp170
g6
(lp171
g10
ag69
ag55
ag32
ag41
ag15
ag24
ag153
asba(iworkloadfiles.workloads
Workload
p172
(dp173
g6
(lp174
g32
ag29
ag40
ag41
ag15
ag152
ag25
ag21
asba(iworkloadfiles.workloads
Workload
p175
(dp176
g6
(lp177
g15
ag29
ag69
ag25
ag32
ag43
ag73
ag152
asbasS'l'
p178
(lp179
(iworkloadfiles.workloads
Workload
p180
(dp181
g6
(lp182
g49
ag8
ag14
aS's6-tonto'
p183
ag49
ag20
ag8
ag38
asba(iworkloadfiles.workloads
Workload
p184
(dp185
g6
(lp186
S's6-gobmk'
p187
aS'gzip0'
p188
ag74
ag74
ag38
ag183
ag188
ag183
asba(iworkloadfiles.workloads
Workload
p189
(dp190
g6
(lp191
g74
ag38
aS's6-gamess'
p192
ag49
ag74
ag187
ag20
ag8
>>>>>>> fd92f31ff7caf1cd4be4739db7e61e384a40182c
asba(iworkloadfiles.workloads
Workload
p485
(dp486
g6
<<<<<<< HEAD
(lp487
g32
ag57
asbasg238
(lp488
(iworkloadfiles.workloads
Workload
p489
(dp490
g6
(lp491
g49
ag47
asba(iworkloadfiles.workloads
Workload
p492
(dp493
g6
(lp494
g56
ag14
asba(iworkloadfiles.workloads
Workload
p495
(dp496
g6
(lp497
g50
ag14
asba(iworkloadfiles.workloads
Workload
p498
(dp499
g6
(lp500
g78
ag20
asba(iworkloadfiles.workloads
Workload
p501
(dp502
g6
(lp503
g11
ag14
asba(iworkloadfiles.workloads
Workload
p504
(dp505
g6
(lp506
g49
ag24
asba(iworkloadfiles.workloads
Workload
p507
(dp508
g6
(lp509
g43
ag14
asba(iworkloadfiles.workloads
Workload
p510
(dp511
g6
(lp512
g20
ag39
asba(iworkloadfiles.workloads
Workload
p513
(dp514
g6
(lp515
g14
ag22
asba(iworkloadfiles.workloads
Workload
p516
(dp517
g6
(lp518
g243
ag43
asbasg271
(lp519
(iworkloadfiles.workloads
Workload
p520
(dp521
g6
(lp522
g8
ag25
asba(iworkloadfiles.workloads
Workload
p523
(dp524
g6
(lp525
g54
ag25
asba(iworkloadfiles.workloads
Workload
p526
(dp527
g6
(lp528
g65
ag63
asba(iworkloadfiles.workloads
Workload
p529
(dp530
g6
(lp531
g33
ag12
asba(iworkloadfiles.workloads
Workload
p532
(dp533
g6
(lp534
g19
ag65
asba(iworkloadfiles.workloads
Workload
p535
(dp536
g6
(lp537
g8
ag31
asba(iworkloadfiles.workloads
Workload
p538
(dp539
g6
(lp540
g54
ag8
asba(iworkloadfiles.workloads
Workload
p541
(dp542
g6
(lp543
g65
ag276
asba(iworkloadfiles.workloads
Workload
p544
(dp545
g6
(lp546
g19
ag12
asba(iworkloadfiles.workloads
Workload
p547
(dp548
g6
(lp549
g276
ag33
asbassI4
(dp550
g2
(lp551
(iworkloadfiles.workloads
Workload
p552
(dp553
g6
(lp554
g78
ag41
ag19
ag49
asba(iworkloadfiles.workloads
Workload
p555
(dp556
g6
(lp557
g38
ag15
ag11
ag25
asba(iworkloadfiles.workloads
Workload
p558
(dp559
g6
(lp560
g54
ag9
ag89
ag15
asba(iworkloadfiles.workloads
=======
(lp195
g183
ag192
ag49
ag188
ag187
ag8
ag14
ag49
asba(iworkloadfiles.workloads
Workload
p196
(dp197
g6
(lp198
g8
ag38
ag38
ag187
ag20
ag188
ag188
ag183
asbassI2
(dp199
g2
(lp200
(iworkloadfiles.workloads
Workload
p201
(dp202
g6
(lp203
g25
ag19
asba(iworkloadfiles.workloads
Workload
p204
(dp205
g6
(lp206
g69
ag31
asba(iworkloadfiles.workloads
Workload
p207
(dp208
g6
(lp209
g12
ag10
asba(iworkloadfiles.workloads
Workload
p210
(dp211
g6
(lp212
g22
ag24
asba(iworkloadfiles.workloads
Workload
p213
(dp214
g6
(lp215
g192
ag63
asba(iworkloadfiles.workloads
Workload
p216
(dp217
g6
(lp218
g13
ag47
asba(iworkloadfiles.workloads
Workload
p219
(dp220
g6
(lp221
g12
ag53
asba(iworkloadfiles.workloads
Workload
p222
(dp223
g6
(lp224
g10
ag25
asba(iworkloadfiles.workloads
Workload
p225
(dp226
g6
(lp227
g40
ag22
asba(iworkloadfiles.workloads
Workload
p228
(dp229
g6
(lp230
g9
ag187
asbasg75
(lp231
(iworkloadfiles.workloads
Workload
p232
(dp233
g6
(lp234
g59
ag19
asba(iworkloadfiles.workloads
Workload
p235
(dp236
g6
(lp237
g11
ag19
asba(iworkloadfiles.workloads
Workload
p238
(dp239
g6
(lp240
g54
ag59
asba(iworkloadfiles.workloads
Workload
p241
(dp242
g6
(lp243
g11
ag48
asba(iworkloadfiles.workloads
Workload
p244
(dp245
g6
(lp246
g92
ag63
asba(iworkloadfiles.workloads
Workload
p247
(dp248
g6
(lp249
g47
ag59
asba(iworkloadfiles.workloads
Workload
p250
(dp251
g6
(lp252
g48
ag54
asba(iworkloadfiles.workloads
Workload
p253
(dp254
g6
(lp255
g48
ag59
asba(iworkloadfiles.workloads
Workload
p256
(dp257
g6
(lp258
g19
ag92
asba(iworkloadfiles.workloads
Workload
p259
(dp260
g6
(lp261
g63
ag67
asbasg108
(lp262
(iworkloadfiles.workloads
>>>>>>> fd92f31ff7caf1cd4be4739db7e61e384a40182c
Workload
p561
(dp562
g6
<<<<<<< HEAD
(lp563
g39
ag63
ag85
ag31
=======
(lp265
g42
ag34
>>>>>>> fd92f31ff7caf1cd4be4739db7e61e384a40182c
asba(iworkloadfiles.workloads
Workload
p564
(dp565
g6
<<<<<<< HEAD
(lp566
g8
ag73
ag58
ag63
=======
(lp268
g23
ag13
>>>>>>> fd92f31ff7caf1cd4be4739db7e61e384a40182c
asba(iworkloadfiles.workloads
Workload
p567
(dp568
g6
<<<<<<< HEAD
(lp569
g25
ag42
ag14
ag15
=======
(lp271
g114
ag9
>>>>>>> fd92f31ff7caf1cd4be4739db7e61e384a40182c
asba(iworkloadfiles.workloads
Workload
p570
(dp571
g6
<<<<<<< HEAD
(lp572
g50
ag85
ag14
ag79
=======
(lp274
g34
ag23
>>>>>>> fd92f31ff7caf1cd4be4739db7e61e384a40182c
asba(iworkloadfiles.workloads
Workload
p573
(dp574
g6
<<<<<<< HEAD
(lp575
g34
ag64
ag25
ag174
=======
(lp277
g33
ag113
>>>>>>> fd92f31ff7caf1cd4be4739db7e61e384a40182c
asba(iworkloadfiles.workloads
Workload
p576
(dp577
g6
<<<<<<< HEAD
(lp578
g79
ag59
ag174
ag78
=======
(lp280
g23
ag34
>>>>>>> fd92f31ff7caf1cd4be4739db7e61e384a40182c
asba(iworkloadfiles.workloads
Workload
p579
(dp580
g6
<<<<<<< HEAD
(lp581
g10
ag276
ag21
ag50
asbasg80
(lp582
(iworkloadfiles.workloads
=======
(lp283
g34
ag114
asba(iworkloadfiles.workloads
>>>>>>> fd92f31ff7caf1cd4be4739db7e61e384a40182c
Workload
p583
(dp584
g6
<<<<<<< HEAD
(lp585
g10
ag59
ag9
ag42
=======
(lp286
g23
ag33
>>>>>>> fd92f31ff7caf1cd4be4739db7e61e384a40182c
asba(iworkloadfiles.workloads
Workload
p586
(dp587
g6
<<<<<<< HEAD
(lp588
g58
ag85
ag41
ag10
asba(iworkloadfiles.workloads
Workload
p589
(dp590
g6
(lp591
g42
ag89
ag9
ag59
asba(iworkloadfiles.workloads
=======
(lp289
g23
ag13
asba(iworkloadfiles.workloads
Workload
p290
(dp291
g6
(lp292
g33
ag13
asbasg143
(lp293
(iworkloadfiles.workloads
>>>>>>> fd92f31ff7caf1cd4be4739db7e61e384a40182c
Workload
p592
(dp593
g6
<<<<<<< HEAD
(lp594
g58
ag10
ag9
ag41
=======
(lp296
g40
ag29
>>>>>>> fd92f31ff7caf1cd4be4739db7e61e384a40182c
asba(iworkloadfiles.workloads
Workload
p595
(dp596
g6
<<<<<<< HEAD
(lp597
g10
ag41
ag69
ag9
=======
(lp299
g15
ag10
>>>>>>> fd92f31ff7caf1cd4be4739db7e61e384a40182c
asba(iworkloadfiles.workloads
Workload
p598
(dp599
g6
<<<<<<< HEAD
(lp600
g42
ag10
ag9
ag89
=======
(lp302
g10
ag30
>>>>>>> fd92f31ff7caf1cd4be4739db7e61e384a40182c
asba(iworkloadfiles.workloads
Workload
p601
(dp602
g6
<<<<<<< HEAD
(lp603
g59
ag9
ag89
ag69
=======
(lp305
g68
ag41
>>>>>>> fd92f31ff7caf1cd4be4739db7e61e384a40182c
asba(iworkloadfiles.workloads
Workload
p604
(dp605
g6
<<<<<<< HEAD
(lp606
g10
ag89
ag9
ag41
=======
(lp308
g41
ag40
>>>>>>> fd92f31ff7caf1cd4be4739db7e61e384a40182c
asba(iworkloadfiles.workloads
Workload
p607
(dp608
g6
<<<<<<< HEAD
(lp609
g79
ag89
ag58
ag59
=======
(lp311
g43
ag68
>>>>>>> fd92f31ff7caf1cd4be4739db7e61e384a40182c
asba(iworkloadfiles.workloads
Workload
p610
(dp611
g6
<<<<<<< HEAD
(lp612
g41
ag59
ag58
ag42
=======
(lp314
g30
ag41
>>>>>>> fd92f31ff7caf1cd4be4739db7e61e384a40182c
asba(iworkloadfiles.workloads
Workload
p613
(dp614
g6
<<<<<<< HEAD
(lp615
g9
ag85
ag10
ag58
=======
(lp317
g40
ag69
>>>>>>> fd92f31ff7caf1cd4be4739db7e61e384a40182c
asba(iworkloadfiles.workloads
Workload
p616
(dp617
g6
<<<<<<< HEAD
(lp618
g10
ag79
ag42
ag89
=======
(lp320
g29
ag41
>>>>>>> fd92f31ff7caf1cd4be4739db7e61e384a40182c
asba(iworkloadfiles.workloads
Workload
p619
(dp620
g6
<<<<<<< HEAD
(lp621
g79
ag41
ag85
ag42
asba(iworkloadfiles.workloads
Workload
p622
(dp623
g6
(lp624
g69
ag59
ag79
ag41
asba(iworkloadfiles.workloads
Workload
p625
(dp626
g6
(lp627
g41
ag59
ag85
ag89
asba(iworkloadfiles.workloads
Workload
p628
(dp629
g6
(lp630
g89
ag85
ag42
ag58
asba(iworkloadfiles.workloads
Workload
p631
(dp632
g6
(lp633
g79
ag58
ag89
ag42
=======
(lp323
g25
ag40
asbasg178
(lp324
(iworkloadfiles.workloads
Workload
p325
(dp326
g6
(lp327
g20
ag49
asba(iworkloadfiles.workloads
Workload
p328
(dp329
g6
(lp330
g192
ag8
asba(iworkloadfiles.workloads
Workload
p331
(dp332
g6
(lp333
g22
ag14
asba(iworkloadfiles.workloads
Workload
p334
(dp335
g6
(lp336
g187
ag38
>>>>>>> fd92f31ff7caf1cd4be4739db7e61e384a40182c
asba(iworkloadfiles.workloads
Workload
p634
(dp635
g6
<<<<<<< HEAD
(lp636
g58
ag42
ag89
ag41
asba(iworkloadfiles.workloads
Workload
p637
(dp638
g6
(lp639
g59
ag42
ag41
ag58
=======
(lp339
g183
ag8
asbassI4
(dp340
g2
(lp341
(iworkloadfiles.workloads
Workload
p342
(dp343
g6
(lp344
g20
ag24
ag63
ag38
>>>>>>> fd92f31ff7caf1cd4be4739db7e61e384a40182c
asba(iworkloadfiles.workloads
Workload
p640
(dp641
g6
<<<<<<< HEAD
(lp642
g85
ag10
ag69
ag89
=======
(lp347
g43
ag153
ag30
ag73
>>>>>>> fd92f31ff7caf1cd4be4739db7e61e384a40182c
asba(iworkloadfiles.workloads
Workload
p643
(dp644
g6
<<<<<<< HEAD
(lp645
g79
ag58
ag69
ag9
=======
(lp350
g19
ag153
ag47
ag54
>>>>>>> fd92f31ff7caf1cd4be4739db7e61e384a40182c
asba(iworkloadfiles.workloads
Workload
p646
(dp647
g6
<<<<<<< HEAD
(lp648
g79
ag59
ag41
ag89
asba(iworkloadfiles.workloads
Workload
p649
(dp650
g6
(lp651
g59
ag85
ag42
ag9
asba(iworkloadfiles.workloads
Workload
p652
(dp653
g6
(lp654
g89
ag59
ag9
ag58
asba(iworkloadfiles.workloads
Workload
p655
(dp656
g6
(lp657
g10
ag79
ag69
ag41
asbasg159
(lp658
(iworkloadfiles.workloads
Workload
p659
(dp660
g6
(lp661
g23
ag57
ag13
ag55
asba(iworkloadfiles.workloads
Workload
p662
(dp663
g6
(lp664
g13
ag164
ag64
ag32
asba(iworkloadfiles.workloads
Workload
p665
(dp666
g6
(lp667
g29
ag23
ag57
ag40
asba(iworkloadfiles.workloads
Workload
p668
(dp669
g6
(lp670
g57
ag13
ag40
ag32
asba(iworkloadfiles.workloads
Workload
p671
(dp672
g6
(lp673
g32
ag174
ag13
ag23
asba(iworkloadfiles.workloads
Workload
p674
(dp675
g6
(lp676
g64
ag32
ag29
ag13
asba(iworkloadfiles.workloads
Workload
p677
(dp678
g6
(lp679
g23
ag13
ag164
ag32
asba(iworkloadfiles.workloads
Workload
p680
(dp681
g6
(lp682
g57
ag164
ag174
ag29
asba(iworkloadfiles.workloads
Workload
p683
(dp684
g6
(lp685
g57
ag174
ag40
ag23
asba(iworkloadfiles.workloads
Workload
p686
(dp687
g6
(lp688
g57
ag23
ag40
ag164
asba(iworkloadfiles.workloads
Workload
p689
(dp690
g6
(lp691
g64
ag164
ag55
ag57
asba(iworkloadfiles.workloads
Workload
p692
(dp693
g6
(lp694
g23
ag55
ag174
ag164
asba(iworkloadfiles.workloads
Workload
p695
(dp696
g6
(lp697
g32
ag23
ag13
ag40
asba(iworkloadfiles.workloads
=======
(lp353
g69
ag22
ag24
ag188
asba(iworkloadfiles.workloads
Workload
p354
(dp355
g6
(lp356
g31
ag67
ag20
ag68
asba(iworkloadfiles.workloads
Workload
p357
(dp358
g6
(lp359
g152
ag15
ag47
ag59
asba(iworkloadfiles.workloads
Workload
p360
(dp361
g6
(lp362
g23
ag183
ag53
ag14
asba(iworkloadfiles.workloads
Workload
p363
(dp364
g6
(lp365
g47
ag13
ag113
ag69
asba(iworkloadfiles.workloads
Workload
p366
(dp367
g6
(lp368
g42
ag153
ag118
ag48
asba(iworkloadfiles.workloads
Workload
p369
(dp370
g6
(lp371
g43
ag47
ag14
ag192
asbasg75
(lp372
(iworkloadfiles.workloads
Workload
p373
(dp374
g6
(lp375
g67
ag19
ag39
ag47
asba(iworkloadfiles.workloads
Workload
p376
(dp377
g6
(lp378
g67
ag59
ag39
ag48
asba(iworkloadfiles.workloads
Workload
p379
(dp380
g6
(lp381
g19
ag54
ag67
ag39
asba(iworkloadfiles.workloads
Workload
p382
(dp383
g6
(lp384
g19
ag59
ag11
ag54
asba(iworkloadfiles.workloads
Workload
p385
(dp386
g6
(lp387
g67
ag48
ag59
ag47
asba(iworkloadfiles.workloads
Workload
p388
(dp389
g6
(lp390
g59
ag67
ag63
ag19
asba(iworkloadfiles.workloads
Workload
p391
(dp392
g6
(lp393
g48
ag47
ag67
ag92
asba(iworkloadfiles.workloads
Workload
p394
(dp395
g6
(lp396
g11
ag48
ag63
ag19
asba(iworkloadfiles.workloads
Workload
p397
(dp398
g6
(lp399
g92
ag67
ag54
ag19
asba(iworkloadfiles.workloads
Workload
p400
(dp401
g6
(lp402
g67
ag11
ag39
ag92
asbasg108
(lp403
(iworkloadfiles.workloads
>>>>>>> fd92f31ff7caf1cd4be4739db7e61e384a40182c
Workload
p698
(dp699
g6
<<<<<<< HEAD
(lp700
g64
ag40
ag29
ag174
=======
(lp406
g53
ag13
ag118
ag33
>>>>>>> fd92f31ff7caf1cd4be4739db7e61e384a40182c
asba(iworkloadfiles.workloads
Workload
p701
(dp702
g6
<<<<<<< HEAD
(lp703
g29
ag57
ag64
ag32
=======
(lp409
g42
ag33
ag113
ag23
>>>>>>> fd92f31ff7caf1cd4be4739db7e61e384a40182c
asba(iworkloadfiles.workloads
Workload
p704
(dp705
g6
<<<<<<< HEAD
(lp706
g40
ag164
ag55
ag32
=======
(lp412
g118
ag114
ag34
ag53
>>>>>>> fd92f31ff7caf1cd4be4739db7e61e384a40182c
asba(iworkloadfiles.workloads
Workload
p707
(dp708
g6
<<<<<<< HEAD
(lp709
g64
ag29
ag32
ag13
=======
(lp415
g53
ag13
ag34
ag9
>>>>>>> fd92f31ff7caf1cd4be4739db7e61e384a40182c
asba(iworkloadfiles.workloads
Workload
p710
(dp711
g6
<<<<<<< HEAD
(lp712
g64
ag174
ag40
ag32
=======
(lp418
g118
ag113
ag114
ag42
>>>>>>> fd92f31ff7caf1cd4be4739db7e61e384a40182c
asba(iworkloadfiles.workloads
Workload
p713
(dp714
g6
<<<<<<< HEAD
(lp715
g23
ag174
ag64
ag13
=======
(lp421
g113
ag33
ag23
ag114
>>>>>>> fd92f31ff7caf1cd4be4739db7e61e384a40182c
asba(iworkloadfiles.workloads
Workload
p716
(dp717
g6
<<<<<<< HEAD
(lp718
g40
ag32
ag57
ag29
=======
(lp424
g114
ag113
ag23
ag42
>>>>>>> fd92f31ff7caf1cd4be4739db7e61e384a40182c
asba(iworkloadfiles.workloads
Workload
p719
(dp720
g6
<<<<<<< HEAD
(lp721
g29
ag55
ag32
ag64
=======
(lp427
g9
ag53
ag34
ag114
>>>>>>> fd92f31ff7caf1cd4be4739db7e61e384a40182c
asba(iworkloadfiles.workloads
Workload
p722
(dp723
g6
<<<<<<< HEAD
(lp724
g29
ag174
ag164
ag64
=======
(lp430
g42
ag13
ag23
ag113
>>>>>>> fd92f31ff7caf1cd4be4739db7e61e384a40182c
asba(iworkloadfiles.workloads
Workload
p725
(dp726
g6
<<<<<<< HEAD
(lp727
g164
ag23
ag40
ag32
asba(iworkloadfiles.workloads
Workload
p728
(dp729
g6
(lp730
g40
ag32
ag29
ag23
asba(iworkloadfiles.workloads
Workload
p731
(dp732
g6
(lp733
g40
ag13
ag64
ag174
asbasg238
(lp734
(iworkloadfiles.workloads
=======
(lp433
g9
ag114
ag23
ag34
asbasg143
(lp434
(iworkloadfiles.workloads
Workload
p435
(dp436
g6
(lp437
g41
ag73
ag40
ag15
asba(iworkloadfiles.workloads
Workload
p438
(dp439
g6
(lp440
g12
ag41
ag15
ag29
asba(iworkloadfiles.workloads
Workload
p441
(dp442
g6
(lp443
g55
ag32
ag15
ag29
asba(iworkloadfiles.workloads
Workload
p444
(dp445
g6
(lp446
g153
ag41
ag24
ag21
asba(iworkloadfiles.workloads
>>>>>>> fd92f31ff7caf1cd4be4739db7e61e384a40182c
Workload
p735
(dp736
g6
<<<<<<< HEAD
(lp737
g15
ag56
ag39
ag49
=======
(lp449
g73
ag43
ag24
ag30
>>>>>>> fd92f31ff7caf1cd4be4739db7e61e384a40182c
asba(iworkloadfiles.workloads
Workload
p738
(dp739
g6
<<<<<<< HEAD
(lp740
g47
ag22
ag39
ag48
=======
(lp452
g152
ag32
ag68
ag30
>>>>>>> fd92f31ff7caf1cd4be4739db7e61e384a40182c
asba(iworkloadfiles.workloads
Workload
p741
(dp742
g6
<<<<<<< HEAD
(lp743
g20
ag50
ag47
ag34
=======
(lp455
g55
ag25
ag21
ag15
>>>>>>> fd92f31ff7caf1cd4be4739db7e61e384a40182c
asba(iworkloadfiles.workloads
Workload
p744
(dp745
g6
<<<<<<< HEAD
(lp746
g15
ag78
ag30
ag14
=======
(lp458
g10
ag41
ag30
ag43
>>>>>>> fd92f31ff7caf1cd4be4739db7e61e384a40182c
asba(iworkloadfiles.workloads
Workload
p747
(dp748
g6
<<<<<<< HEAD
(lp749
g14
ag243
ag73
ag11
=======
(lp461
g12
ag29
ag31
ag68
>>>>>>> fd92f31ff7caf1cd4be4739db7e61e384a40182c
asba(iworkloadfiles.workloads
Workload
p750
(dp751
g6
<<<<<<< HEAD
(lp752
g43
ag50
ag243
ag39
asba(iworkloadfiles.workloads
Workload
p753
(dp754
g6
(lp755
g34
ag56
ag14
ag73
asba(iworkloadfiles.workloads
Workload
p756
(dp757
g6
(lp758
g243
ag49
ag34
ag30
asba(iworkloadfiles.workloads
Workload
p759
(dp760
g6
(lp761
g24
ag77
ag14
ag243
asba(iworkloadfiles.workloads
Workload
p762
(dp763
g6
(lp764
g78
ag30
ag48
ag77
asbasg271
(lp765
(iworkloadfiles.workloads
Workload
p766
(dp767
g6
(lp768
g33
ag19
ag65
ag21
asba(iworkloadfiles.workloads
Workload
p769
(dp770
g6
(lp771
g54
ag19
ag31
ag25
asba(iworkloadfiles.workloads
Workload
p772
(dp773
g6
(lp774
g31
ag19
ag12
ag65
asba(iworkloadfiles.workloads
Workload
p775
(dp776
g6
(lp777
g21
ag63
ag8
ag65
asba(iworkloadfiles.workloads
Workload
p778
(dp779
g6
(lp780
g31
ag54
ag12
ag276
asba(iworkloadfiles.workloads
Workload
p781
(dp782
g6
(lp783
g65
ag12
ag276
ag19
asba(iworkloadfiles.workloads
Workload
p784
(dp785
g6
(lp786
g276
ag19
ag21
ag65
asba(iworkloadfiles.workloads
Workload
p787
(dp788
g6
(lp789
g25
ag63
ag65
ag276
asba(iworkloadfiles.workloads
Workload
p790
(dp791
g6
(lp792
g12
ag8
ag33
ag54
asba(iworkloadfiles.workloads
Workload
p793
(dp794
g6
(lp795
g54
ag63
ag25
ag12
=======
(lp464
g73
ag10
ag25
ag153
asbasg178
(lp465
(iworkloadfiles.workloads
Workload
p466
(dp467
g6
(lp468
g187
ag20
ag183
ag49
asba(iworkloadfiles.workloads
Workload
p469
(dp470
g6
(lp471
g183
ag187
ag192
ag22
asba(iworkloadfiles.workloads
Workload
p472
(dp473
g6
(lp474
g187
ag74
ag14
ag38
asba(iworkloadfiles.workloads
Workload
p475
(dp476
g6
(lp477
g38
ag192
ag74
ag14
asba(iworkloadfiles.workloads
Workload
p478
(dp479
g6
(lp480
g74
ag22
ag49
ag183
>>>>>>> fd92f31ff7caf1cd4be4739db7e61e384a40182c
asbass.