(dp0
I8
(dp1
S'a'
p2
(lp3
(iworkloadfiles.workloads
Workload
p4
(dp5
S'benchmarks'
p6
(lp7
S'wupwise0'
p8
aS's6-zeusmp'
p9
aS's6-astar'
p10
aS'vortex10'
p11
aS's6-gcc'
p12
aS's6-cactusADM'
p13
aS'facerec0'
p14
aS'galgel0'
p15
asba(iworkloadfiles.workloads
Workload
p16
(dp17
g6
(lp18
S'equake0'
p19
aS'fma3d0'
p20
ag14
aS'ammp0'
p21
aS's6-lbm'
p22
ag9
aS'apsi0'
p23
ag8
asba(iworkloadfiles.workloads
Workload
p24
(dp25
g6
(lp26
S'mcf0'
p27
ag15
ag10
aS's6-omnetpp'
p28
ag13
ag21
ag20
aS's6-sphinx3'
p29
asba(iworkloadfiles.workloads
Workload
p30
(dp31
g6
(lp32
g11
aS's6-bzip2'
p33
ag23
ag19
ag28
ag27
ag12
ag9
asba(iworkloadfiles.workloads
Workload
p34
(dp35
g6
(lp36
g20
ag23
ag19
ag9
aS'bzip0'
p37
ag14
ag28
ag29
asba(iworkloadfiles.workloads
Workload
p38
(dp39
g6
(lp40
g22
ag33
ag21
ag14
ag27
ag29
ag11
ag23
asba(iworkloadfiles.workloads
Workload
p41
(dp42
g6
(lp43
g9
ag29
ag23
ag21
ag37
aS's6-mcf'
p44
aS's6-leslie3d'
p45
ag14
asba(iworkloadfiles.workloads
Workload
p46
(dp47
g6
(lp48
g33
ag21
ag45
ag10
ag9
ag19
ag23
ag11
asba(iworkloadfiles.workloads
Workload
p49
(dp50
g6
(lp51
g8
ag28
ag29
ag10
ag14
ag9
ag21
ag44
asba(iworkloadfiles.workloads
Workload
p52
(dp53
g6
(lp54
g33
ag45
ag23
ag10
ag19
ag20
ag37
ag8
asbasS'c'
p55
(lp56
sS'b'
p57
(lp58
(iworkloadfiles.workloads
Workload
p59
(dp60
g6
(lp61
S's6-milc'
p62
aS'mgrid0'
p63
aS'gap0'
p64
aS's6-soplex'
p65
aS's6-libquantum'
p66
aS'swim0'
p67
aS's6-gemsFDTD'
p68
aS'lucas0'
p69
asba(iworkloadfiles.workloads
Workload
p70
(dp71
g6
(lp72
g62
ag68
ag67
ag64
aS'applu0'
p73
ag65
ag63
ag66
asba(iworkloadfiles.workloads
Workload
p74
(dp75
g6
(lp76
g64
ag65
ag66
ag73
ag69
ag63
ag62
ag67
asba(iworkloadfiles.workloads
Workload
p77
(dp78
g6
(lp79
g66
ag69
ag63
ag68
ag65
ag67
ag73
ag62
asba(iworkloadfiles.workloads
Workload
p80
(dp81
g6
(lp82
g69
ag68
ag62
ag67
ag65
ag66
ag64
ag63
asba(iworkloadfiles.workloads
Workload
p83
(dp84
g6
(lp85
g68
ag73
ag69
ag64
ag66
ag62
ag67
ag63
asba(iworkloadfiles.workloads
Workload
p86
(dp87
g6
(lp88
g64
ag73
ag65
ag67
ag68
ag63
ag69
ag62
asba(iworkloadfiles.workloads
Workload
p89
(dp90
g6
(lp91
g64
ag66
ag69
ag68
ag65
ag63
ag73
ag62
asba(iworkloadfiles.workloads
Workload
p92
(dp93
g6
(lp94
g62
ag67
ag63
ag73
ag66
ag64
ag69
ag68
asba(iworkloadfiles.workloads
Workload
p95
(dp96
g6
(lp97
g63
ag66
ag69
ag65
ag62
ag64
ag68
ag67
asbasS'n'
p98
(lp99
(iworkloadfiles.workloads
Workload
p100
(dp101
g6
(lp102
S'mesa0'
p103
aS'gzip0'
p104
aS's6-bwaves'
p105
aS's6-h264ref'
p106
aS'crafty0'
p107
aS'eon0'
p108
aS'parser0'
p109
aS's6-povray'
p110
asba(iworkloadfiles.workloads
Workload
p111
(dp112
g6
(lp113
S's6-gromacs'
p114
ag106
ag105
aS's6-wrf'
p115
aS's6-namd'
p116
ag110
aS's6-gamess'
p117
ag104
asba(iworkloadfiles.workloads
Workload
p118
(dp119
g6
(lp120
g103
ag117
aS's6-gobmk'
p121
ag104
ag107
ag114
ag115
ag116
asba(iworkloadfiles.workloads
Workload
p122
(dp123
g6
(lp124
g109
ag107
ag115
ag121
ag106
ag105
ag114
ag117
asba(iworkloadfiles.workloads
Workload
p125
(dp126
g6
(lp127
g106
ag105
aS's6-sjeng'
p128
ag114
ag115
ag109
ag104
ag108
asba(iworkloadfiles.workloads
Workload
p129
(dp130
g6
(lp131
g108
ag103
ag110
ag115
ag109
ag107
ag128
ag117
asba(iworkloadfiles.workloads
Workload
p132
(dp133
g6
(lp134
g107
ag110
ag106
ag116
ag104
ag114
ag115
ag128
asba(iworkloadfiles.workloads
Workload
p135
(dp136
g6
(lp137
g106
ag116
ag109
ag104
ag105
ag117
ag107
ag110
asba(iworkloadfiles.workloads
Workload
p138
(dp139
g6
(lp140
g121
ag114
ag109
ag128
ag117
ag110
ag105
ag107
asba(iworkloadfiles.workloads
Workload
p141
(dp142
g6
(lp143
g103
ag105
ag108
ag109
ag114
ag106
ag110
ag121
asbassI16
(dp144
g2
(lp145
(iworkloadfiles.workloads
Workload
p146
(dp147
g6
(lp148
g14
ag19
ag29
ag28
ag20
ag27
ag12
ag23
ag44
ag22
ag9
ag45
ag15
ag8
ag13
ag37
asba(iworkloadfiles.workloads
Workload
p149
(dp150
g6
(lp151
g19
ag23
ag27
ag13
ag20
ag44
ag8
ag10
ag22
ag37
ag9
ag45
ag33
ag11
ag14
ag29
asba(iworkloadfiles.workloads
Workload
p152
(dp153
g6
(lp154
g28
ag23
ag21
ag12
ag9
ag44
ag11
ag14
ag29
ag27
ag19
ag33
ag20
ag22
ag8
ag37
asba(iworkloadfiles.workloads
Workload
p155
(dp156
g6
(lp157
g23
ag15
ag14
ag22
ag11
ag12
ag33
ag9
ag10
ag13
ag28
ag20
ag44
ag21
ag45
ag27
asba(iworkloadfiles.workloads
Workload
p158
(dp159
g6
(lp160
g19
ag12
ag22
ag13
ag14
ag33
ag10
ag37
ag28
ag11
ag29
ag23
ag45
ag9
ag20
ag15
asba(iworkloadfiles.workloads
Workload
p161
(dp162
g6
(lp163
g28
ag23
ag21
ag10
ag20
ag8
ag29
ag44
ag19
ag12
ag22
ag45
ag11
ag37
ag9
ag15
asba(iworkloadfiles.workloads
Workload
p164
(dp165
g6
(lp166
g28
ag21
ag13
ag29
ag37
ag10
ag11
ag12
ag19
ag27
ag9
ag23
ag22
ag8
ag15
ag14
asba(iworkloadfiles.workloads
Workload
p167
(dp168
g6
(lp169
g21
ag27
ag23
ag10
ag22
ag33
ag29
ag15
ag13
ag12
ag19
ag9
ag20
ag14
ag44
ag28
asba(iworkloadfiles.workloads
Workload
p170
(dp171
g6
(lp172
g44
ag11
ag15
ag45
ag8
ag14
ag10
ag28
ag21
ag20
ag23
ag19
ag13
ag33
ag37
ag27
asba(iworkloadfiles.workloads
Workload
p173
(dp174
g6
(lp175
g45
ag19
ag37
ag9
ag15
ag10
ag29
ag14
ag13
ag44
ag22
ag27
ag21
ag12
ag8
ag28
asbasg55
(lp176
sg57
(lp177
sg98
(lp178
ssI4
(dp179
g2
(lp180
(iworkloadfiles.workloads
Workload
p181
(dp182
g6
(lp183
g29
ag11
ag13
ag14
asba(iworkloadfiles.workloads
Workload
p184
(dp185
g6
(lp186
g21
ag29
ag44
ag8
asba(iworkloadfiles.workloads
Workload
p187
(dp188
g6
(lp189
g28
ag12
ag10
ag29
asba(iworkloadfiles.workloads
Workload
p190
(dp191
g6
(lp192
g8
ag21
ag27
ag11
asba(iworkloadfiles.workloads
Workload
p193
(dp194
g6
(lp195
g28
ag45
ag23
ag27
asba(iworkloadfiles.workloads
Workload
p196
(dp197
g6
(lp198
g23
ag10
ag11
ag44
asba(iworkloadfiles.workloads
Workload
p199
(dp200
g6
(lp201
g22
ag19
ag15
ag12
asba(iworkloadfiles.workloads
Workload
p202
(dp203
g6
(lp204
g8
ag15
ag23
ag19
asba(iworkloadfiles.workloads
Workload
p205
(dp206
g6
(lp207
g13
ag10
ag45
ag15
asba(iworkloadfiles.workloads
Workload
p208
(dp209
g6
(lp210
g11
ag45
ag10
ag28
asbasg55
(lp211
(iworkloadfiles.workloads
Workload
p212
(dp213
g6
(lp214
S'twolf0'
p215
aS's6-hmmer'
p216
aS'sixtrack0'
p217
aS's6-dealII'
p218
asba(iworkloadfiles.workloads
Workload
p219
(dp220
g6
(lp221
g218
ag217
aS'vpr0'
p222
ag216
asba(iworkloadfiles.workloads
Workload
p223
(dp224
g6
(lp225
g218
ag217
ag215
ag222
asba(iworkloadfiles.workloads
Workload
p226
(dp227
g6
(lp228
g217
ag222
ag218
ag216
asba(iworkloadfiles.workloads
Workload
p229
(dp230
g6
(lp231
g215
ag216
ag217
ag218
asba(iworkloadfiles.workloads
Workload
p232
(dp233
g6
(lp234
g216
ag215
ag217
ag218
asba(iworkloadfiles.workloads
Workload
p235
(dp236
g6
(lp237
g217
ag215
ag216
ag218
asba(iworkloadfiles.workloads
Workload
p238
(dp239
g6
(lp240
g222
ag218
ag216
ag217
asba(iworkloadfiles.workloads
Workload
p241
(dp242
g6
(lp243
g222
ag215
ag218
ag216
asba(iworkloadfiles.workloads
Workload
p244
(dp245
g6
(lp246
g217
ag222
ag218
ag216
asbasg57
(lp247
(iworkloadfiles.workloads
Workload
p248
(dp249
g6
(lp250
g65
ag69
ag66
ag73
asba(iworkloadfiles.workloads
Workload
p251
(dp252
g6
(lp253
g66
ag64
ag65
ag73
asba(iworkloadfiles.workloads
Workload
p254
(dp255
g6
(lp256
g66
ag68
ag69
ag64
asba(iworkloadfiles.workloads
Workload
p257
(dp258
g6
(lp259
g65
ag62
ag64
ag63
asba(iworkloadfiles.workloads
Workload
p260
(dp261
g6
(lp262
g63
ag69
ag73
ag68
asba(iworkloadfiles.workloads
Workload
p263
(dp264
g6
(lp265
g69
ag63
ag65
ag62
asba(iworkloadfiles.workloads
Workload
p266
(dp267
g6
(lp268
g64
ag73
ag68
ag63
asba(iworkloadfiles.workloads
Workload
p269
(dp270
g6
(lp271
g67
ag63
ag69
ag68
asba(iworkloadfiles.workloads
Workload
p272
(dp273
g6
(lp274
g67
ag73
ag66
ag69
asba(iworkloadfiles.workloads
Workload
p275
(dp276
g6
(lp277
g62
ag66
ag63
ag65
asbasg98
(lp278
(iworkloadfiles.workloads
Workload
p279
(dp280
g6
(lp281
g103
ag107
ag104
ag115
asba(iworkloadfiles.workloads
Workload
p282
(dp283
g6
(lp284
g109
ag121
ag110
ag106
asba(iworkloadfiles.workloads
Workload
p285
(dp286
g6
(lp287
g108
ag110
ag128
ag117
asba(iworkloadfiles.workloads
Workload
p288
(dp289
g6
(lp290
g106
ag103
ag110
ag116
asba(iworkloadfiles.workloads
Workload
p291
(dp292
g6
(lp293
g105
ag121
ag107
ag114
asba(iworkloadfiles.workloads
Workload
p294
(dp295
g6
(lp296
g106
ag108
ag104
ag116
asba(iworkloadfiles.workloads
Workload
p297
(dp298
g6
(lp299
g116
ag105
ag108
ag110
asba(iworkloadfiles.workloads
Workload
p300
(dp301
g6
(lp302
g109
ag117
ag106
ag115
asba(iworkloadfiles.workloads
Workload
p303
(dp304
g6
(lp305
g106
ag115
ag128
ag116
asba(iworkloadfiles.workloads
Workload
p306
(dp307
g6
(lp308
g108
ag106
ag117
ag116
asbass.