(dp0
I8
(dp1
S'a'
p2
(lp3
(iworkloadfiles.workloads
Workload
p4
(dp5
S'benchmarks'
p6
(lp7
S's6-zeusmp'
p8
aS'gzip0'
p9
aS's6-milc'
p10
aS'ammp0'
p11
aS's6-lbm'
p12
aS's6-dealII'
p13
aS's6-gobmk'
p14
aS's6-calculix'
p15
asba(iworkloadfiles.workloads
Workload
p16
(dp17
g6
(lp18
S's6-cactusADM'
p19
aS's6-hmmer'
p20
aS'eon0'
p21
aS's6-soplex'
p22
aS's6-libquantum'
p23
ag8
aS'lucas0'
p24
aS'art0'
p25
asba(iworkloadfiles.workloads
Workload
p26
(dp27
g6
(lp28
S'twolf0'
p29
aS'wupwise0'
p30
aS'bzip0'
p31
ag9
ag8
ag19
aS's6-astar'
p32
ag14
asba(iworkloadfiles.workloads
Workload
p33
(dp34
g6
(lp35
g9
aS'mesa0'
p36
aS's6-povray'
p37
ag29
ag8
ag23
ag10
ag14
asba(iworkloadfiles.workloads
Workload
p38
(dp39
g6
(lp40
S's6-gromacs'
p41
aS's6-tonto'
p42
ag32
ag12
ag22
aS'facerec0'
p43
aS's6-bwaves'
p44
aS'vortex10'
p45
asbasS'h'
p46
(lp47
(iworkloadfiles.workloads
Workload
p48
(dp49
g6
(lp50
S's6-mcf'
p51
ag20
aS'vpr0'
p52
aS's6-sphinx3'
p53
aS's6-bzip2'
p54
ag20
ag11
ag12
asba(iworkloadfiles.workloads
Workload
p55
(dp56
g6
(lp57
S'galgel0'
p58
ag29
ag52
ag12
ag51
ag12
ag58
ag29
asba(iworkloadfiles.workloads
Workload
p59
(dp60
g6
(lp61
g54
ag11
ag20
ag51
ag11
ag52
ag25
ag51
asba(iworkloadfiles.workloads
Workload
p62
(dp63
g6
(lp64
g25
ag51
ag53
ag29
ag11
ag52
ag25
ag12
asba(iworkloadfiles.workloads
Workload
p65
(dp66
g6
(lp67
g53
ag54
ag25
ag20
ag25
ag51
ag11
ag52
asbasS's'
p68
(lp69
(iworkloadfiles.workloads
Workload
p70
(dp71
g6
(lp72
S'applu0'
p73
ag19
aS'equake0'
p74
aS'swim0'
p75
ag19
ag75
ag8
ag10
asba(iworkloadfiles.workloads
Workload
p76
(dp77
g6
(lp78
S's6-omnetpp'
p79
ag73
ag19
ag8
ag44
ag74
ag75
ag44
asba(iworkloadfiles.workloads
Workload
p80
(dp81
g6
(lp82
g75
ag24
ag75
ag24
ag44
ag73
ag8
ag44
asba(iworkloadfiles.workloads
Workload
p83
(dp84
g6
(lp85
g24
aS's6-gemsFDTD'
p86
ag73
ag74
ag10
ag24
ag73
ag79
asba(iworkloadfiles.workloads
Workload
p87
(dp88
g6
(lp89
g8
ag19
ag86
ag24
ag24
ag44
ag10
ag10
asbasS'm'
p90
(lp91
(iworkloadfiles.workloads
Workload
p92
(dp93
g6
(lp94
g41
aS'gcc0'
p95
ag43
ag23
ag36
ag32
ag22
ag45
asba(iworkloadfiles.workloads
Workload
p96
(dp97
g6
(lp98
g45
ag41
aS'parser0'
p99
ag22
aS's6-leslie3d'
p100
ag13
aS'fma3d0'
p101
ag30
asba(iworkloadfiles.workloads
Workload
p102
(dp103
g6
(lp104
g23
aS'apsi0'
p105
ag95
ag101
ag41
ag43
aS'mgrid0'
p106
ag22
asba(iworkloadfiles.workloads
Workload
p107
(dp108
g6
(lp109
g23
ag31
ag30
ag99
ag100
ag106
ag32
ag43
asba(iworkloadfiles.workloads
Workload
p110
(dp111
g6
(lp112
g95
ag31
ag22
ag99
ag101
ag106
ag45
ag36
asbasS'l'
p113
(lp114
(iworkloadfiles.workloads
Workload
p115
(dp116
g6
(lp117
g37
ag9
aS'perlbmk0'
p118
aS'sixtrack0'
p119
aS's6-sjeng'
p120
ag42
aS's6-gamess'
p121
ag42
asba(iworkloadfiles.workloads
Workload
p122
(dp123
g6
(lp124
g21
ag121
aS'crafty0'
p125
ag118
ag42
ag15
ag121
ag21
asba(iworkloadfiles.workloads
Workload
p126
(dp127
g6
(lp128
g125
ag121
ag119
ag121
ag42
ag118
ag21
ag125
asba(iworkloadfiles.workloads
Workload
p129
(dp130
g6
(lp131
g42
ag37
ag21
ag15
ag120
ag42
ag15
ag119
asba(iworkloadfiles.workloads
Workload
p132
(dp133
g6
(lp134
g120
ag21
ag120
ag121
ag119
ag125
ag118
ag15
asbassI2
(dp135
g2
(lp136
(iworkloadfiles.workloads
Workload
p137
(dp138
g6
(lp139
g24
ag51
asba(iworkloadfiles.workloads
Workload
p140
(dp141
g6
(lp142
g43
ag101
asba(iworkloadfiles.workloads
Workload
p143
(dp144
g6
(lp145
g13
ag105
asba(iworkloadfiles.workloads
Workload
p146
(dp147
g6
(lp148
g99
ag14
asba(iworkloadfiles.workloads
Workload
p149
(dp150
g6
(lp151
g121
ag19
asbasg46
(lp152
(iworkloadfiles.workloads
Workload
p153
(dp154
g6
(lp155
g20
ag11
asba(iworkloadfiles.workloads
Workload
p156
(dp157
g6
(lp158
g54
ag11
asba(iworkloadfiles.workloads
Workload
p159
(dp160
g6
(lp161
g54
ag51
asba(iworkloadfiles.workloads
Workload
p162
(dp163
g6
(lp164
g53
ag51
asba(iworkloadfiles.workloads
Workload
p165
(dp166
g6
(lp167
g25
ag12
asbasg68
(lp168
(iworkloadfiles.workloads
Workload
p169
(dp170
g6
(lp171
g75
ag74
asba(iworkloadfiles.workloads
Workload
p172
(dp173
g6
(lp174
g74
ag75
asba(iworkloadfiles.workloads
Workload
p175
(dp176
g6
(lp177
g19
ag73
asba(iworkloadfiles.workloads
Workload
p178
(dp179
g6
(lp180
g8
ag73
asba(iworkloadfiles.workloads
Workload
p181
(dp182
g6
(lp183
g75
ag44
asbasg90
(lp184
(iworkloadfiles.workloads
Workload
p185
(dp186
g6
(lp187
g30
ag41
asba(iworkloadfiles.workloads
Workload
p188
(dp189
g6
(lp190
g105
aS's6-namd'
p191
asba(iworkloadfiles.workloads
Workload
p192
(dp193
g6
(lp194
g43
aS's6-gcc'
p195
asba(iworkloadfiles.workloads
Workload
p196
(dp197
g6
(lp198
g36
aS'gap0'
p199
asba(iworkloadfiles.workloads
Workload
p200
(dp201
g6
(lp202
g22
ag99
asbasg113
(lp203
(iworkloadfiles.workloads
Workload
p204
(dp205
g6
(lp206
g121
ag118
asba(iworkloadfiles.workloads
Workload
p207
(dp208
g6
(lp209
g14
ag9
asba(iworkloadfiles.workloads
Workload
p210
(dp211
g6
(lp212
g9
ag21
asba(iworkloadfiles.workloads
Workload
p213
(dp214
g6
(lp215
g125
ag15
asba(iworkloadfiles.workloads
Workload
p216
(dp217
g6
(lp218
g118
ag120
asbassI4
(dp219
g2
(lp220
(iworkloadfiles.workloads
Workload
p221
(dp222
g6
(lp223
g45
ag19
ag11
ag25
asba(iworkloadfiles.workloads
Workload
p224
(dp225
g6
(lp226
g36
ag19
ag21
ag25
asba(iworkloadfiles.workloads
Workload
p227
(dp228
g6
(lp229
g22
ag23
ag120
ag101
asba(iworkloadfiles.workloads
Workload
p230
(dp231
g6
(lp232
g100
ag25
ag75
ag51
asba(iworkloadfiles.workloads
Workload
p233
(dp234
g6
(lp235
g23
ag14
ag86
ag11
asbasg46
(lp236
(iworkloadfiles.workloads
Workload
p237
(dp238
g6
(lp239
g11
ag54
ag53
ag12
asba(iworkloadfiles.workloads
Workload
p240
(dp241
g6
(lp242
g54
ag11
ag12
ag51
asba(iworkloadfiles.workloads
Workload
p243
(dp244
g6
(lp245
g11
ag12
ag52
ag20
asba(iworkloadfiles.workloads
Workload
p246
(dp247
g6
(lp248
g29
ag52
ag58
ag12
asba(iworkloadfiles.workloads
Workload
p249
(dp250
g6
(lp251
g20
ag52
ag12
ag11
asbasg68
(lp252
(iworkloadfiles.workloads
Workload
p253
(dp254
g6
(lp255
g74
ag8
ag79
ag19
asba(iworkloadfiles.workloads
Workload
p256
(dp257
g6
(lp258
g86
ag19
ag24
ag74
asba(iworkloadfiles.workloads
Workload
p259
(dp260
g6
(lp261
g8
ag86
ag19
ag73
asba(iworkloadfiles.workloads
Workload
p262
(dp263
g6
(lp264
g44
ag79
ag10
ag75
asba(iworkloadfiles.workloads
Workload
p265
(dp266
g6
(lp267
g24
ag75
ag10
ag79
asbasg90
(lp268
(iworkloadfiles.workloads
Workload
p269
(dp270
g6
(lp271
g195
ag99
ag45
ag191
asba(iworkloadfiles.workloads
Workload
p272
(dp273
g6
(lp274
g95
ag199
ag99
ag105
asba(iworkloadfiles.workloads
Workload
p275
(dp276
g6
(lp277
g191
ag23
ag199
ag95
asba(iworkloadfiles.workloads
Workload
p278
(dp279
g6
(lp280
g101
ag105
ag199
ag41
asba(iworkloadfiles.workloads
Workload
p281
(dp282
g6
(lp283
g100
aS's6-h264ref'
p284
ag199
ag23
asbasg113
(lp285
(iworkloadfiles.workloads
Workload
p286
(dp287
g6
(lp288
g119
ag37
ag14
ag118
asba(iworkloadfiles.workloads
Workload
p289
(dp290
g6
(lp291
g120
ag14
ag121
ag125
asba(iworkloadfiles.workloads
Workload
p292
(dp293
g6
(lp294
g118
ag14
ag120
ag37
asba(iworkloadfiles.workloads
Workload
p295
(dp296
g6
(lp297
g9
ag14
ag119
ag125
asba(iworkloadfiles.workloads
Workload
p298
(dp299
g6
(lp300
g9
ag118
ag21
ag120
asbass.