(dp0
I8
(dp1
S'a'
p2
(lp3
(iworkloadfiles.workloads
Workload
p4
(dp5
S'benchmarks'
p6
(lp7
S'apsi0'
p8
aS'facerec0'
p9
aS's6-omnetpp'
p10
aS'art0'
p11
aS'ammp0'
p12
aS's6-sphinx3'
p13
aS's6-lbm'
p14
aS'galgel0'
p15
asbasS'b'
p16
(lp17
(iworkloadfiles.workloads
Workload
p18
(dp19
g6
(lp20
S'lucas0'
p21
aS'applu0'
p22
aS'wupwise0'
p23
aS's6-cactusADM'
p24
aS's6-milc'
p25
aS's6-zeusmp'
p26
aS's6-libquantum'
p27
aS's6-leslie3d'
p28
asba(iworkloadfiles.workloads
Workload
p29
(dp30
g6
(lp31
g28
ag27
ag24
aS'swim0'
p32
aS'equake0'
p33
aS'mgrid0'
p34
ag22
ag21
asba(iworkloadfiles.workloads
Workload
p35
(dp36
g6
(lp37
g25
ag34
aS's6-gemsFDTD'
p38
ag28
ag24
ag23
ag26
ag33
asba(iworkloadfiles.workloads
Workload
p39
(dp40
g6
(lp41
g38
ag24
ag28
ag22
ag32
ag34
ag21
ag23
asba(iworkloadfiles.workloads
Workload
p42
(dp43
g6
(lp44
g34
ag33
ag28
ag38
ag22
ag25
ag21
aS's6-mcf'
p45
asba(iworkloadfiles.workloads
Workload
p46
(dp47
g6
(lp48
g38
ag32
ag34
ag22
ag21
ag26
ag33
ag27
asba(iworkloadfiles.workloads
Workload
p49
(dp50
g6
(lp51
g45
ag21
ag27
ag22
ag26
ag23
ag38
ag25
asba(iworkloadfiles.workloads
Workload
p52
(dp53
g6
(lp54
g33
ag23
ag25
ag28
ag26
ag22
ag21
ag32
asba(iworkloadfiles.workloads
Workload
p55
(dp56
g6
(lp57
g21
ag38
ag25
ag28
ag22
ag27
ag23
ag45
asba(iworkloadfiles.workloads
Workload
p58
(dp59
g6
(lp60
g21
ag34
ag45
ag28
ag24
ag32
ag25
ag33
asbasS'n'
p61
(lp62
(iworkloadfiles.workloads
Workload
p63
(dp64
g6
(lp65
S's6-namd'
p66
aS's6-gromacs'
p67
aS's6-astar'
p68
ag32
ag23
aS'vpr0'
p69
ag34
aS'vortex10'
p70
asba(iworkloadfiles.workloads
Workload
p71
(dp72
g6
(lp73
S's6-soplex'
p74
aS'crafty0'
p75
aS'sixtrack0'
p76
aS's6-h264ref'
p77
ag23
aS's6-gamess'
p78
aS's6-bzip2'
p79
ag34
asba(iworkloadfiles.workloads
Workload
p80
(dp81
g6
(lp82
g68
aS'gzip0'
p83
ag67
ag24
aS'eon0'
p84
ag8
aS'twolf0'
p85
ag14
asba(iworkloadfiles.workloads
Workload
p86
(dp87
g6
(lp88
S's6-gcc'
p89
aS'gcc0'
p90
ag34
ag74
aS'mesa0'
p91
ag28
ag68
aS's6-wrf'
p92
asba(iworkloadfiles.workloads
Workload
p93
(dp94
g6
(lp95
S's6-sjeng'
p96
ag14
aS's6-calculix'
p97
ag27
ag25
ag89
aS's6-dealII'
p98
aS's6-gobmk'
p99
asba(iworkloadfiles.workloads
Workload
p100
(dp101
g6
(lp102
g97
ag26
ag70
ag22
ag34
ag10
ag67
ag45
asba(iworkloadfiles.workloads
Workload
p103
(dp104
g6
(lp105
g77
ag15
aS'parser0'
p106
ag33
ag99
aS'gap0'
p107
ag34
ag78
asba(iworkloadfiles.workloads
Workload
p108
(dp109
g6
(lp110
g78
ag75
ag76
ag99
ag23
ag38
ag96
ag74
asba(iworkloadfiles.workloads
Workload
p111
(dp112
g6
(lp113
g67
ag21
ag83
ag12
ag74
ag14
ag76
ag26
asba(iworkloadfiles.workloads
Workload
p114
(dp115
g6
(lp116
g99
ag27
ag32
ag8
ag69
ag9
aS's6-bwaves'
p117
ag76
asba(iworkloadfiles.workloads
Workload
p118
(dp119
g6
(lp120
S'bzip0'
p121
ag70
aS'perlbmk0'
p122
ag77
ag69
aS'fma3d0'
p123
aS's6-hmmer'
p124
ag10
asba(iworkloadfiles.workloads
Workload
p125
(dp126
g6
(lp127
g107
ag70
ag90
ag21
ag32
ag33
ag67
ag98
asba(iworkloadfiles.workloads
Workload
p128
(dp129
g6
(lp130
g22
ag106
ag69
ag99
ag92
ag12
ag10
ag24
asba(iworkloadfiles.workloads
Workload
p131
(dp132
g6
(lp133
g10
ag67
ag14
ag23
ag69
ag107
ag122
ag68
asba(iworkloadfiles.workloads
Workload
p134
(dp135
g6
(lp136
g124
ag32
ag78
ag67
ag121
ag27
ag26
ag84
asba(iworkloadfiles.workloads
Workload
p137
(dp138
g6
(lp139
g66
ag13
ag84
ag69
ag33
ag117
ag14
ag123
asba(iworkloadfiles.workloads
Workload
p140
(dp141
g6
(lp142
g25
ag75
ag117
ag77
ag84
ag24
ag74
ag27
asba(iworkloadfiles.workloads
Workload
p143
(dp144
g6
(lp145
g122
ag92
ag24
ag12
ag8
ag21
ag89
ag9
asba(iworkloadfiles.workloads
Workload
p146
(dp147
g6
(lp148
g74
ag66
ag84
ag14
ag10
ag98
ag78
ag8
asba(iworkloadfiles.workloads
Workload
p149
(dp150
g6
(lp151
g26
ag13
ag15
ag66
ag45
ag79
ag8
ag22
asbassI2
(dp152
g2
(lp153
(iworkloadfiles.workloads
Workload
p154
(dp155
g6
(lp156
g10
ag15
asba(iworkloadfiles.workloads
Workload
p157
(dp158
g6
(lp159
g9
ag11
asba(iworkloadfiles.workloads
Workload
p160
(dp161
g6
(lp162
g10
ag13
asba(iworkloadfiles.workloads
Workload
p163
(dp164
g6
(lp165
g15
ag12
asba(iworkloadfiles.workloads
Workload
p166
(dp167
g6
(lp168
g15
ag11
asba(iworkloadfiles.workloads
Workload
p169
(dp170
g6
(lp171
g8
ag15
asba(iworkloadfiles.workloads
Workload
p172
(dp173
g6
(lp174
g11
ag10
asba(iworkloadfiles.workloads
Workload
p175
(dp176
g6
(lp177
g8
ag11
asba(iworkloadfiles.workloads
Workload
p178
(dp179
g6
(lp180
g8
ag14
asba(iworkloadfiles.workloads
Workload
p181
(dp182
g6
(lp183
g15
ag14
asbasS'c'
p184
(lp185
(iworkloadfiles.workloads
Workload
p186
(dp187
g6
(lp188
g69
ag106
asba(iworkloadfiles.workloads
Workload
p189
(dp190
g6
(lp191
g85
ag69
asba(iworkloadfiles.workloads
Workload
p192
(dp193
g6
(lp194
g106
ag69
asba(iworkloadfiles.workloads
Workload
p195
(dp196
g6
(lp197
g106
ag68
asba(iworkloadfiles.workloads
Workload
p198
(dp199
g6
(lp200
g85
ag106
asba(iworkloadfiles.workloads
Workload
p201
(dp202
g6
(lp203
g106
ag74
asba(iworkloadfiles.workloads
Workload
p204
(dp205
g6
(lp206
g68
ag106
asba(iworkloadfiles.workloads
Workload
p207
(dp208
g6
(lp209
g67
ag106
asba(iworkloadfiles.workloads
Workload
p210
(dp211
g6
(lp212
g85
ag74
asba(iworkloadfiles.workloads
Workload
p213
(dp214
g6
(lp215
g68
ag124
asbasg16
(lp216
(iworkloadfiles.workloads
Workload
p217
(dp218
g6
(lp219
g26
ag33
asba(iworkloadfiles.workloads
Workload
p220
(dp221
g6
(lp222
g34
ag38
asba(iworkloadfiles.workloads
Workload
p223
(dp224
g6
(lp225
g33
ag32
asba(iworkloadfiles.workloads
Workload
p226
(dp227
g6
(lp228
g32
ag28
asba(iworkloadfiles.workloads
Workload
p229
(dp230
g6
(lp231
g27
ag24
asba(iworkloadfiles.workloads
Workload
p232
(dp233
g6
(lp234
g26
ag45
asba(iworkloadfiles.workloads
Workload
p235
(dp236
g6
(lp237
g38
ag33
asba(iworkloadfiles.workloads
Workload
p238
(dp239
g6
(lp240
g27
ag24
asba(iworkloadfiles.workloads
Workload
p241
(dp242
g6
(lp243
g25
ag28
asba(iworkloadfiles.workloads
Workload
p244
(dp245
g6
(lp246
g27
ag26
asbasg61
(lp247
(iworkloadfiles.workloads
Workload
p248
(dp249
g6
(lp250
g117
ag98
asba(iworkloadfiles.workloads
Workload
p251
(dp252
g6
(lp253
g24
ag32
asba(iworkloadfiles.workloads
Workload
p254
(dp255
g6
(lp256
g69
ag33
asba(iworkloadfiles.workloads
Workload
p257
(dp258
g6
(lp259
g22
ag23
asba(iworkloadfiles.workloads
Workload
p260
(dp261
g6
(lp262
g14
aS's6-povray'
p263
asba(iworkloadfiles.workloads
Workload
p264
(dp265
g6
(lp266
g33
ag68
asba(iworkloadfiles.workloads
Workload
p267
(dp268
g6
(lp269
g123
ag38
asba(iworkloadfiles.workloads
Workload
p270
(dp271
g6
(lp272
g91
ag22
asba(iworkloadfiles.workloads
Workload
p273
(dp274
g6
(lp275
g34
ag124
asba(iworkloadfiles.workloads
Workload
p276
(dp277
g6
(lp278
g22
ag96
asba(iworkloadfiles.workloads
Workload
p279
(dp280
g6
(lp281
g97
ag123
asba(iworkloadfiles.workloads
Workload
p282
(dp283
g6
(lp284
g32
ag92
asba(iworkloadfiles.workloads
Workload
p285
(dp286
g6
(lp287
g89
ag106
asba(iworkloadfiles.workloads
Workload
p288
(dp289
g6
(lp290
g90
ag84
asba(iworkloadfiles.workloads
Workload
p291
(dp292
g6
(lp293
g77
ag28
asba(iworkloadfiles.workloads
Workload
p294
(dp295
g6
(lp296
g76
ag75
asba(iworkloadfiles.workloads
Workload
p297
(dp298
g6
(lp299
g21
ag92
asba(iworkloadfiles.workloads
Workload
p300
(dp301
g6
(lp302
g45
ag13
asba(iworkloadfiles.workloads
Workload
p303
(dp304
g6
(lp305
g74
ag83
asba(iworkloadfiles.workloads
Workload
p306
(dp307
g6
(lp308
g25
ag117
asbassI4
(dp309
g2
(lp310
(iworkloadfiles.workloads
Workload
p311
(dp312
g6
(lp313
g8
ag9
ag10
ag15
asba(iworkloadfiles.workloads
Workload
p314
(dp315
g6
(lp316
g12
ag13
ag9
ag8
asba(iworkloadfiles.workloads
Workload
p317
(dp318
g6
(lp319
g11
ag13
ag14
ag9
asba(iworkloadfiles.workloads
Workload
p320
(dp321
g6
(lp322
g10
ag8
ag11
ag14
asba(iworkloadfiles.workloads
Workload
p323
(dp324
g6
(lp325
g8
ag14
ag15
ag9
asbasg184
(lp326
(iworkloadfiles.workloads
Workload
p327
(dp328
g6
(lp329
g106
ag69
ag74
ag124
asba(iworkloadfiles.workloads
Workload
p330
(dp331
g6
(lp332
g124
ag67
ag106
ag69
asba(iworkloadfiles.workloads
Workload
p333
(dp334
g6
(lp335
g124
ag85
ag67
ag68
asba(iworkloadfiles.workloads
Workload
p336
(dp337
g6
(lp338
g74
ag69
ag85
ag106
asba(iworkloadfiles.workloads
Workload
p339
(dp340
g6
(lp341
g106
ag124
ag85
ag74
asbasg16
(lp342
(iworkloadfiles.workloads
Workload
p343
(dp344
g6
(lp345
g23
ag38
ag28
ag24
asba(iworkloadfiles.workloads
Workload
p346
(dp347
g6
(lp348
g22
ag23
ag28
ag38
asba(iworkloadfiles.workloads
Workload
p349
(dp350
g6
(lp351
g32
ag45
ag23
ag26
asba(iworkloadfiles.workloads
Workload
p352
(dp353
g6
(lp354
g26
ag32
ag45
ag27
asba(iworkloadfiles.workloads
Workload
p355
(dp356
g6
(lp357
g22
ag28
ag21
ag34
asba(iworkloadfiles.workloads
Workload
p358
(dp359
g6
(lp360
g27
ag26
ag34
ag33
asba(iworkloadfiles.workloads
Workload
p361
(dp362
g6
(lp363
g38
ag25
ag21
ag45
asba(iworkloadfiles.workloads
Workload
p364
(dp365
g6
(lp366
g32
ag34
ag33
ag27
asba(iworkloadfiles.workloads
Workload
p367
(dp368
g6
(lp369
g34
ag23
ag25
ag28
asba(iworkloadfiles.workloads
Workload
p370
(dp371
g6
(lp372
g28
ag23
ag22
ag25
asbasg61
(lp373
(iworkloadfiles.workloads
Workload
p374
(dp375
g6
(lp376
g91
ag74
ag99
ag90
asba(iworkloadfiles.workloads
Workload
p377
(dp378
g6
(lp379
g92
ag98
ag13
aS's6-tonto'
p380
asba(iworkloadfiles.workloads
Workload
p381
(dp382
g6
(lp383
g74
ag121
ag79
ag32
asba(iworkloadfiles.workloads
Workload
p384
(dp385
g6
(lp386
g123
ag75
ag21
ag92
asba(iworkloadfiles.workloads
Workload
p387
(dp388
g6
(lp389
g22
ag24
ag91
ag76
asba(iworkloadfiles.workloads
Workload
p390
(dp391
g6
(lp392
g14
ag92
ag99
ag25
asba(iworkloadfiles.workloads
Workload
p393
(dp394
g6
(lp395
g121
ag11
ag13
ag96
asba(iworkloadfiles.workloads
Workload
p396
(dp397
g6
(lp398
g99
ag26
ag90
ag96
asba(iworkloadfiles.workloads
Workload
p399
(dp400
g6
(lp401
g89
ag74
ag121
ag14
asba(iworkloadfiles.workloads
Workload
p402
(dp403
g6
(lp404
g106
ag85
ag96
ag117
asba(iworkloadfiles.workloads
Workload
p405
(dp406
g6
(lp407
g34
ag122
ag97
ag96
asba(iworkloadfiles.workloads
Workload
p408
(dp409
g6
(lp410
g77
ag76
ag96
ag45
asba(iworkloadfiles.workloads
Workload
p411
(dp412
g6
(lp413
g380
ag23
ag25
ag34
asba(iworkloadfiles.workloads
Workload
p414
(dp415
g6
(lp416
g123
ag68
ag11
ag33
asba(iworkloadfiles.workloads
Workload
p417
(dp418
g6
(lp419
g67
ag75
ag91
ag92
asba(iworkloadfiles.workloads
Workload
p420
(dp421
g6
(lp422
g92
ag75
ag32
ag22
asba(iworkloadfiles.workloads
Workload
p423
(dp424
g6
(lp425
g380
ag263
ag21
ag121
asba(iworkloadfiles.workloads
Workload
p426
(dp427
g6
(lp428
g98
ag78
ag27
ag92
asba(iworkloadfiles.workloads
Workload
p429
(dp430
g6
(lp431
g68
ag83
ag66
ag11
asba(iworkloadfiles.workloads
Workload
p432
(dp433
g6
(lp434
g68
ag380
ag122
ag84
asbass.