(dp0
I8
(dp1
S'h'
p2
(lp3
(iworkloadfiles.workloads
Workload
p4
(dp5
S'benchmarks'
p6
(lp7
S'art0'
p8
aS'galgel0'
p9
ag8
aS's6-omnetpp'
p10
aS's6-lbm'
p11
aS's6-sphinx3'
p12
ag10
aS'ammp0'
p13
asba(iworkloadfiles.workloads
Workload
p14
(dp15
g6
(lp16
g13
ag11
aS'facerec0'
p17
ag8
ag12
ag8
ag13
ag10
asba(iworkloadfiles.workloads
Workload
p18
(dp19
g6
(lp20
g9
ag9
ag17
ag13
ag17
ag11
aS'apsi0'
p21
ag10
asba(iworkloadfiles.workloads
Workload
p22
(dp23
g6
(lp24
g21
ag13
ag12
ag13
ag12
ag8
ag9
ag11
asba(iworkloadfiles.workloads
Workload
p25
(dp26
g6
(lp27
g12
ag12
ag8
ag17
ag8
ag11
ag17
ag11
asba(iworkloadfiles.workloads
Workload
p28
(dp29
g6
(lp30
g21
ag10
ag12
ag11
ag21
ag12
ag8
ag10
asba(iworkloadfiles.workloads
Workload
p31
(dp32
g6
(lp33
g9
ag8
ag21
ag17
ag13
ag13
ag12
ag12
asba(iworkloadfiles.workloads
Workload
p34
(dp35
g6
(lp36
g17
ag9
ag10
ag11
ag9
ag17
ag21
ag21
asba(iworkloadfiles.workloads
Workload
p37
(dp38
g6
(lp39
g11
ag12
ag9
ag17
ag21
ag21
ag13
ag12
asba(iworkloadfiles.workloads
Workload
p40
(dp41
g6
(lp42
g17
ag12
ag17
ag13
ag13
ag8
ag9
ag21
asba(iworkloadfiles.workloads
Workload
p43
(dp44
g6
(lp45
g17
ag9
ag9
ag12
ag11
ag17
ag13
ag8
asba(iworkloadfiles.workloads
Workload
p46
(dp47
g6
(lp48
g13
ag8
ag17
ag11
ag9
ag12
ag10
ag12
asba(iworkloadfiles.workloads
Workload
p49
(dp50
g6
(lp51
g10
ag9
ag8
ag13
ag9
ag8
ag11
ag17
asba(iworkloadfiles.workloads
Workload
p52
(dp53
g6
(lp54
g12
ag17
ag12
ag9
ag13
ag10
ag10
ag9
asba(iworkloadfiles.workloads
Workload
p55
(dp56
g6
(lp57
g12
ag9
ag21
ag21
ag11
ag11
ag17
ag13
asba(iworkloadfiles.workloads
Workload
p58
(dp59
g6
(lp60
g9
ag11
ag9
ag13
ag8
ag11
ag17
ag10
asba(iworkloadfiles.workloads
Workload
p61
(dp62
g6
(lp63
g21
ag13
ag8
ag17
ag21
ag8
ag13
ag17
asba(iworkloadfiles.workloads
Workload
p64
(dp65
g6
(lp66
g17
ag9
ag8
ag8
ag10
ag9
ag17
ag13
asba(iworkloadfiles.workloads
Workload
p67
(dp68
g6
(lp69
g9
ag12
ag21
ag12
ag10
ag10
ag13
ag11
asba(iworkloadfiles.workloads
Workload
p70
(dp71
g6
(lp72
g12
ag12
ag9
ag17
ag10
ag13
ag17
ag21
asba(iworkloadfiles.workloads
Workload
p73
(dp74
g6
(lp75
g13
ag17
ag17
ag10
ag9
ag11
ag11
ag10
asba(iworkloadfiles.workloads
Workload
p76
(dp77
g6
(lp78
g21
ag17
ag11
ag21
ag9
ag9
ag11
ag13
asba(iworkloadfiles.workloads
Workload
p79
(dp80
g6
(lp81
g11
ag12
ag13
ag11
ag17
ag12
ag17
ag8
asba(iworkloadfiles.workloads
Workload
p82
(dp83
g6
(lp84
g10
ag13
ag10
ag21
ag13
ag12
ag21
ag8
asba(iworkloadfiles.workloads
Workload
p85
(dp86
g6
(lp87
g17
ag9
ag12
ag12
ag8
ag10
ag9
ag10
asba(iworkloadfiles.workloads
Workload
p88
(dp89
g6
(lp90
g12
ag8
ag11
ag10
ag12
ag17
ag21
ag10
asba(iworkloadfiles.workloads
Workload
p91
(dp92
g6
(lp93
g11
ag10
ag9
ag17
ag21
ag13
ag10
ag21
asba(iworkloadfiles.workloads
Workload
p94
(dp95
g6
(lp96
g13
ag13
ag17
ag12
ag9
ag17
ag10
ag21
asba(iworkloadfiles.workloads
Workload
p97
(dp98
g6
(lp99
g17
ag13
ag12
ag13
ag10
ag10
ag12
ag21
asba(iworkloadfiles.workloads
Workload
p100
(dp101
g6
(lp102
g21
ag12
ag9
ag10
ag9
ag10
ag21
ag11
asbasS'm'
p103
(lp104
(iworkloadfiles.workloads
Workload
p105
(dp106
g6
(lp107
S'equake0'
p108
aS'vpr0'
p109
aS's6-astar'
p110
ag109
ag110
aS's6-gromacs'
p111
ag108
ag111
asba(iworkloadfiles.workloads
Workload
p112
(dp113
g6
(lp114
S'twolf0'
p115
aS's6-hmmer'
p116
ag115
ag108
aS's6-bzip2'
p117
ag117
ag110
ag110
asba(iworkloadfiles.workloads
Workload
p118
(dp119
g6
(lp120
g115
ag115
ag109
ag111
ag116
aS'parser0'
p121
ag111
ag110
asba(iworkloadfiles.workloads
Workload
p122
(dp123
g6
(lp124
g121
ag117
ag117
ag109
ag110
ag108
ag110
ag116
asba(iworkloadfiles.workloads
Workload
p125
(dp126
g6
(lp127
g111
ag110
ag110
ag111
ag116
ag115
ag121
ag116
asba(iworkloadfiles.workloads
Workload
p128
(dp129
g6
(lp130
g121
ag115
ag115
ag109
ag121
ag108
ag110
ag111
asba(iworkloadfiles.workloads
Workload
p131
(dp132
g6
(lp133
g109
ag108
ag116
ag111
ag116
ag108
ag115
ag117
asba(iworkloadfiles.workloads
Workload
p134
(dp135
g6
(lp136
g121
ag121
ag108
ag109
ag116
ag110
ag108
ag117
asba(iworkloadfiles.workloads
Workload
p137
(dp138
g6
(lp139
g121
ag121
ag117
ag111
ag116
ag110
ag115
ag110
asba(iworkloadfiles.workloads
Workload
p140
(dp141
g6
(lp142
g116
ag111
ag115
ag116
ag109
ag117
ag115
ag121
asba(iworkloadfiles.workloads
Workload
p143
(dp144
g6
(lp145
g110
ag111
ag121
ag116
ag115
ag109
ag111
ag117
asba(iworkloadfiles.workloads
Workload
p146
(dp147
g6
(lp148
g108
ag111
ag115
ag111
ag121
ag116
ag121
ag108
asba(iworkloadfiles.workloads
Workload
p149
(dp150
g6
(lp151
g110
ag117
ag115
ag121
ag121
ag110
ag116
ag109
asba(iworkloadfiles.workloads
Workload
p152
(dp153
g6
(lp154
g115
ag116
ag108
ag111
ag110
ag117
ag111
ag116
asba(iworkloadfiles.workloads
Workload
p155
(dp156
g6
(lp157
g117
ag111
ag117
ag110
ag108
ag116
ag121
ag109
asbasS'l'
p158
(lp159
(iworkloadfiles.workloads
Workload
p160
(dp161
g6
(lp162
S'bzip0'
p163
aS'lucas0'
p164
aS's6-libquantum'
p165
aS'sixtrack0'
p166
aS's6-gcc'
p167
aS's6-sjeng'
p168
aS's6-gobmk'
p169
aS's6-gamess'
p170
asba(iworkloadfiles.workloads
Workload
p171
(dp172
g6
(lp173
g168
aS's6-milc'
p174
ag166
aS's6-dealII'
p175
aS'applu0'
p176
aS's6-h264ref'
p177
aS's6-namd'
p178
ag170
asba(iworkloadfiles.workloads
Workload
p179
(dp180
g6
(lp181
S's6-gemsFDTD'
p182
aS's6-soplex'
p183
ag163
ag177
aS's6-leslie3d'
p184
aS'mgrid0'
p185
aS'gcc0'
p186
ag176
asba(iworkloadfiles.workloads
Workload
p187
(dp188
g6
(lp189
g185
ag169
aS'vortex10'
p190
ag163
ag175
aS's6-calculix'
p191
ag165
aS's6-zeusmp'
p192
asba(iworkloadfiles.workloads
Workload
p193
(dp194
g6
(lp195
g185
ag190
aS's6-cactusADM'
p196
ag191
aS's6-wrf'
p197
ag175
ag176
ag167
asbassI2
(dp198
g2
(lp199
(iworkloadfiles.workloads
Workload
p200
(dp201
g6
(lp202
g12
ag11
asba(iworkloadfiles.workloads
Workload
p203
(dp204
g6
(lp205
g9
ag11
asba(iworkloadfiles.workloads
Workload
p206
(dp207
g6
(lp208
g8
ag12
asba(iworkloadfiles.workloads
Workload
p209
(dp210
g6
(lp211
g9
ag10
asba(iworkloadfiles.workloads
Workload
p212
(dp213
g6
(lp214
g17
ag21
asba(iworkloadfiles.workloads
Workload
p215
(dp216
g6
(lp217
g13
ag12
asba(iworkloadfiles.workloads
Workload
p218
(dp219
g6
(lp220
g10
ag8
asba(iworkloadfiles.workloads
Workload
p221
(dp222
g6
(lp223
g10
ag12
asba(iworkloadfiles.workloads
Workload
p224
(dp225
g6
(lp226
g11
ag9
asba(iworkloadfiles.workloads
Workload
p227
(dp228
g6
(lp229
g21
ag10
asba(iworkloadfiles.workloads
Workload
p230
(dp231
g6
(lp232
g12
ag10
asba(iworkloadfiles.workloads
Workload
p233
(dp234
g6
(lp235
g11
ag9
asba(iworkloadfiles.workloads
Workload
p236
(dp237
g6
(lp238
g13
ag10
asba(iworkloadfiles.workloads
Workload
p239
(dp240
g6
(lp241
g13
ag21
asba(iworkloadfiles.workloads
Workload
p242
(dp243
g6
(lp244
g10
ag13
asba(iworkloadfiles.workloads
Workload
p245
(dp246
g6
(lp247
g10
ag9
asba(iworkloadfiles.workloads
Workload
p248
(dp249
g6
(lp250
g13
ag21
asba(iworkloadfiles.workloads
Workload
p251
(dp252
g6
(lp253
g13
ag11
asba(iworkloadfiles.workloads
Workload
p254
(dp255
g6
(lp256
g21
ag11
asba(iworkloadfiles.workloads
Workload
p257
(dp258
g6
(lp259
g21
ag11
asba(iworkloadfiles.workloads
Workload
p260
(dp261
g6
(lp262
g11
ag9
asba(iworkloadfiles.workloads
Workload
p263
(dp264
g6
(lp265
g17
ag8
asba(iworkloadfiles.workloads
Workload
p266
(dp267
g6
(lp268
g10
ag9
asba(iworkloadfiles.workloads
Workload
p269
(dp270
g6
(lp271
g9
ag21
asba(iworkloadfiles.workloads
Workload
p272
(dp273
g6
(lp274
g12
ag10
asba(iworkloadfiles.workloads
Workload
p275
(dp276
g6
(lp277
g8
ag9
asba(iworkloadfiles.workloads
Workload
p278
(dp279
g6
(lp280
g21
ag17
asba(iworkloadfiles.workloads
Workload
p281
(dp282
g6
(lp283
g11
ag9
asba(iworkloadfiles.workloads
Workload
p284
(dp285
g6
(lp286
g12
ag21
asba(iworkloadfiles.workloads
Workload
p287
(dp288
g6
(lp289
g8
ag10
asbasg103
(lp290
(iworkloadfiles.workloads
Workload
p291
(dp292
g6
(lp293
g121
ag111
asba(iworkloadfiles.workloads
Workload
p294
(dp295
g6
(lp296
g121
ag117
asba(iworkloadfiles.workloads
Workload
p297
(dp298
g6
(lp299
g110
ag116
asba(iworkloadfiles.workloads
Workload
p300
(dp301
g6
(lp302
g108
ag111
asba(iworkloadfiles.workloads
Workload
p303
(dp304
g6
(lp305
g115
ag117
asba(iworkloadfiles.workloads
Workload
p306
(dp307
g6
(lp308
g110
ag108
asba(iworkloadfiles.workloads
Workload
p309
(dp310
g6
(lp311
g117
ag108
asba(iworkloadfiles.workloads
Workload
p312
(dp313
g6
(lp314
g108
ag121
asba(iworkloadfiles.workloads
Workload
p315
(dp316
g6
(lp317
g116
ag108
asba(iworkloadfiles.workloads
Workload
p318
(dp319
g6
(lp320
g117
ag111
asba(iworkloadfiles.workloads
Workload
p321
(dp322
g6
(lp323
g117
ag115
asba(iworkloadfiles.workloads
Workload
p324
(dp325
g6
(lp326
g111
ag108
asba(iworkloadfiles.workloads
Workload
p327
(dp328
g6
(lp329
g110
ag117
asba(iworkloadfiles.workloads
Workload
p330
(dp331
g6
(lp332
g108
ag121
asba(iworkloadfiles.workloads
Workload
p333
(dp334
g6
(lp335
g116
ag121
asbasg158
(lp336
(iworkloadfiles.workloads
Workload
p337
(dp338
g6
(lp339
S'gzip0'
p340
ag167
asba(iworkloadfiles.workloads
Workload
p341
(dp342
g6
(lp343
g165
aS's6-tonto'
p344
asba(iworkloadfiles.workloads
Workload
p345
(dp346
g6
(lp347
g164
ag177
asba(iworkloadfiles.workloads
Workload
p348
(dp349
g6
(lp350
g175
ag167
asba(iworkloadfiles.workloads
Workload
p351
(dp352
g6
(lp353
g167
ag174
asbassI4
(dp354
g2
(lp355
(iworkloadfiles.workloads
Workload
p356
(dp357
g6
(lp358
g11
ag12
ag9
ag13
asba(iworkloadfiles.workloads
Workload
p359
(dp360
g6
(lp361
g10
ag12
ag21
ag13
asba(iworkloadfiles.workloads
Workload
p362
(dp363
g6
(lp364
g12
ag10
ag21
ag11
asba(iworkloadfiles.workloads
Workload
p365
(dp366
g6
(lp367
g17
ag11
ag10
ag13
asba(iworkloadfiles.workloads
Workload
p368
(dp369
g6
(lp370
g13
ag9
ag10
ag21
asba(iworkloadfiles.workloads
Workload
p371
(dp372
g6
(lp373
g11
ag17
ag9
ag21
asba(iworkloadfiles.workloads
Workload
p374
(dp375
g6
(lp376
g8
ag11
ag21
ag9
asba(iworkloadfiles.workloads
Workload
p377
(dp378
g6
(lp379
g9
ag8
ag17
ag11
asba(iworkloadfiles.workloads
Workload
p380
(dp381
g6
(lp382
g8
ag21
ag12
ag17
asba(iworkloadfiles.workloads
Workload
p383
(dp384
g6
(lp385
g13
ag12
ag9
ag10
asba(iworkloadfiles.workloads
Workload
p386
(dp387
g6
(lp388
g9
ag17
ag11
ag21
asba(iworkloadfiles.workloads
Workload
p389
(dp390
g6
(lp391
g13
ag8
ag17
ag9
asba(iworkloadfiles.workloads
Workload
p392
(dp393
g6
(lp394
g12
ag10
ag21
ag13
asba(iworkloadfiles.workloads
Workload
p395
(dp396
g6
(lp397
g9
ag10
ag11
ag12
asba(iworkloadfiles.workloads
Workload
p398
(dp399
g6
(lp400
g8
ag17
ag10
ag9
asba(iworkloadfiles.workloads
Workload
p401
(dp402
g6
(lp403
g12
ag11
ag10
ag13
asba(iworkloadfiles.workloads
Workload
p404
(dp405
g6
(lp406
g13
ag9
ag21
ag11
asba(iworkloadfiles.workloads
Workload
p407
(dp408
g6
(lp409
g12
ag9
ag13
ag11
asba(iworkloadfiles.workloads
Workload
p410
(dp411
g6
(lp412
g10
ag17
ag11
ag21
asba(iworkloadfiles.workloads
Workload
p413
(dp414
g6
(lp415
g9
ag11
ag13
ag21
asba(iworkloadfiles.workloads
Workload
p416
(dp417
g6
(lp418
g12
ag11
ag8
ag13
asba(iworkloadfiles.workloads
Workload
p419
(dp420
g6
(lp421
g17
ag10
ag8
ag12
asba(iworkloadfiles.workloads
Workload
p422
(dp423
g6
(lp424
g13
ag9
ag8
ag12
asba(iworkloadfiles.workloads
Workload
p425
(dp426
g6
(lp427
g11
ag8
ag10
ag17
asba(iworkloadfiles.workloads
Workload
p428
(dp429
g6
(lp430
g12
ag21
ag17
ag10
asba(iworkloadfiles.workloads
Workload
p431
(dp432
g6
(lp433
g21
ag17
ag11
ag12
asba(iworkloadfiles.workloads
Workload
p434
(dp435
g6
(lp436
g13
ag8
ag11
ag12
asba(iworkloadfiles.workloads
Workload
p437
(dp438
g6
(lp439
g8
ag13
ag12
ag11
asba(iworkloadfiles.workloads
Workload
p440
(dp441
g6
(lp442
g10
ag17
ag12
ag8
asba(iworkloadfiles.workloads
Workload
p443
(dp444
g6
(lp445
g17
ag9
ag21
ag11
asbasg103
(lp446
(iworkloadfiles.workloads
Workload
p447
(dp448
g6
(lp449
g116
ag111
ag117
ag110
asba(iworkloadfiles.workloads
Workload
p450
(dp451
g6
(lp452
g108
ag121
ag115
ag109
asba(iworkloadfiles.workloads
Workload
p453
(dp454
g6
(lp455
g121
ag110
ag117
ag116
asba(iworkloadfiles.workloads
Workload
p456
(dp457
g6
(lp458
g115
ag116
ag111
ag108
asba(iworkloadfiles.workloads
Workload
p459
(dp460
g6
(lp461
g117
ag108
ag109
ag110
asba(iworkloadfiles.workloads
Workload
p462
(dp463
g6
(lp464
g109
ag111
ag108
ag117
asba(iworkloadfiles.workloads
Workload
p465
(dp466
g6
(lp467
g115
ag117
ag108
ag121
asba(iworkloadfiles.workloads
Workload
p468
(dp469
g6
(lp470
g109
ag108
ag116
ag117
asba(iworkloadfiles.workloads
Workload
p471
(dp472
g6
(lp473
g116
ag121
ag117
ag110
asba(iworkloadfiles.workloads
Workload
p474
(dp475
g6
(lp476
g117
ag115
ag116
ag111
asba(iworkloadfiles.workloads
Workload
p477
(dp478
g6
(lp479
g117
ag108
ag111
ag121
asba(iworkloadfiles.workloads
Workload
p480
(dp481
g6
(lp482
g115
ag108
ag121
ag109
asba(iworkloadfiles.workloads
Workload
p483
(dp484
g6
(lp485
g121
ag111
ag117
ag109
asba(iworkloadfiles.workloads
Workload
p486
(dp487
g6
(lp488
g111
ag110
ag108
ag117
asba(iworkloadfiles.workloads
Workload
p489
(dp490
g6
(lp491
g110
ag121
ag111
ag117
asbasg158
(lp492
(iworkloadfiles.workloads
Workload
p493
(dp494
g6
(lp495
g340
ag175
aS's6-bwaves'
p496
ag165
asba(iworkloadfiles.workloads
Workload
p497
(dp498
g6
(lp499
S'wupwise0'
p500
ag165
aS'eon0'
p501
aS'crafty0'
p502
asba(iworkloadfiles.workloads
Workload
p503
(dp504
g6
(lp505
g165
aS'mesa0'
p506
aS's6-mcf'
p507
ag183
asba(iworkloadfiles.workloads
Workload
p508
(dp509
g6
(lp510
g186
ag169
ag501
ag168
asba(iworkloadfiles.workloads
Workload
p511
(dp512
g6
(lp513
g500
ag170
ag164
ag191
asbass.