(dp0
I8
(dp1
S'h'
p2
(lp3
(iworkloadfiles.workloads
Workload
p4
(dp5
S'benchmarks'
p6
(lp7
S's6-bzip2'
p8
aS'art0'
p9
ag9
aS'galgel0'
p10
ag9
ag9
aS'vpr0'
p11
ag9
asba(iworkloadfiles.workloads
Workload
p12
(dp13
g6
(lp14
g8
aS's6-sphinx3'
p15
ag10
aS's6-omnetpp'
p16
aS'facerec0'
p17
ag15
ag16
ag9
asba(iworkloadfiles.workloads
Workload
p18
(dp19
g6
(lp20
S's6-astar'
p21
aS'twolf0'
p22
aS's6-gromacs'
p23
ag10
aS's6-hmmer'
p24
ag9
ag23
aS'ammp0'
p25
asba(iworkloadfiles.workloads
Workload
p26
(dp27
g6
(lp28
g9
ag17
ag16
ag16
aS's6-lbm'
p29
aS'gap0'
p30
ag22
ag15
asba(iworkloadfiles.workloads
Workload
p31
(dp32
g6
(lp33
g29
ag10
ag17
ag25
ag9
ag22
ag24
ag23
asba(iworkloadfiles.workloads
Workload
p34
(dp35
g6
(lp36
g16
ag25
ag16
ag11
ag17
ag11
ag23
ag30
asba(iworkloadfiles.workloads
Workload
p37
(dp38
g6
(lp39
g8
ag22
ag25
ag16
ag29
ag11
ag16
ag24
asba(iworkloadfiles.workloads
Workload
p40
(dp41
g6
(lp42
g15
ag8
ag9
ag10
ag24
ag8
ag17
ag8
asba(iworkloadfiles.workloads
Workload
p43
(dp44
g6
(lp45
S'parser0'
p46
ag9
ag25
ag24
ag23
ag8
ag16
ag23
asba(iworkloadfiles.workloads
Workload
p47
(dp48
g6
(lp49
g10
ag22
ag16
ag29
ag11
ag29
aS'apsi0'
p50
ag25
asba(iworkloadfiles.workloads
Workload
p51
(dp52
g6
(lp53
g15
ag50
ag23
ag17
ag17
ag23
ag21
ag30
asba(iworkloadfiles.workloads
Workload
p54
(dp55
g6
(lp56
g50
ag8
ag21
ag29
ag23
ag8
ag25
ag9
asba(iworkloadfiles.workloads
Workload
p57
(dp58
g6
(lp59
g24
ag15
ag17
ag15
ag15
ag22
ag15
ag10
asba(iworkloadfiles.workloads
Workload
p60
(dp61
g6
(lp62
g46
ag16
ag17
ag9
ag15
ag23
ag17
ag8
asba(iworkloadfiles.workloads
Workload
p63
(dp64
g6
(lp65
g30
ag46
ag9
ag46
ag24
ag30
ag10
ag15
asbasS's'
p66
(lp67
(iworkloadfiles.workloads
Workload
p68
(dp69
g6
(lp70
S'lucas0'
p71
aS's6-milc'
p72
aS's6-gemsFDTD'
p73
ag73
aS's6-mcf'
p74
ag71
aS'swim0'
p75
aS's6-libquantum'
p76
asba(iworkloadfiles.workloads
Workload
p77
(dp78
g6
(lp79
g72
ag72
aS'applu0'
p80
aS'mgrid0'
p81
ag81
aS'wupwise0'
p82
ag72
ag71
asba(iworkloadfiles.workloads
Workload
p83
(dp84
g6
(lp85
g81
ag74
aS's6-leslie3d'
p86
ag71
ag86
ag73
ag76
ag72
asba(iworkloadfiles.workloads
Workload
p87
(dp88
g6
(lp89
g76
ag72
ag81
ag72
ag72
ag73
ag76
ag76
asba(iworkloadfiles.workloads
Workload
p90
(dp91
g6
(lp92
g76
ag75
ag75
ag71
ag75
ag74
ag82
ag74
asbasS'm'
p93
(lp94
(iworkloadfiles.workloads
Workload
p95
(dp96
g6
(lp97
S's6-gcc'
p98
aS's6-soplex'
p99
aS's6-cactusADM'
p100
aS's6-zeusmp'
p101
ag98
ag100
aS'mesa0'
p102
ag99
asba(iworkloadfiles.workloads
Workload
p103
(dp104
g6
(lp105
S'gcc0'
p106
ag102
ag98
aS'equake0'
p107
aS's6-calculix'
p108
ag108
ag100
ag100
asba(iworkloadfiles.workloads
Workload
p109
(dp110
g6
(lp111
g107
ag106
ag99
ag101
ag106
ag107
ag107
ag98
asba(iworkloadfiles.workloads
Workload
p112
(dp113
g6
(lp114
g98
ag101
ag100
ag106
ag107
ag98
ag98
ag108
asba(iworkloadfiles.workloads
Workload
p115
(dp116
g6
(lp117
g100
ag107
ag100
ag107
ag108
ag108
ag102
ag106
asba(iworkloadfiles.workloads
Workload
p118
(dp119
g6
(lp120
g98
ag107
ag106
ag106
ag100
ag101
ag107
ag108
asba(iworkloadfiles.workloads
Workload
p121
(dp122
g6
(lp123
g107
ag107
ag102
ag108
ag102
ag107
ag101
ag106
asba(iworkloadfiles.workloads
Workload
p124
(dp125
g6
(lp126
g100
ag99
ag100
ag99
ag106
ag102
ag108
ag106
asba(iworkloadfiles.workloads
Workload
p127
(dp128
g6
(lp129
g102
ag106
ag101
ag102
ag106
ag107
ag100
ag107
asba(iworkloadfiles.workloads
Workload
p130
(dp131
g6
(lp132
g100
ag106
ag108
ag99
ag99
ag106
ag100
ag106
asba(iworkloadfiles.workloads
Workload
p133
(dp134
g6
(lp135
g98
ag98
ag101
ag101
ag107
ag108
ag106
ag101
asba(iworkloadfiles.workloads
Workload
p136
(dp137
g6
(lp138
g106
ag108
ag102
ag101
ag107
ag101
ag99
ag98
asba(iworkloadfiles.workloads
Workload
p139
(dp140
g6
(lp141
g108
ag102
ag107
ag98
ag102
ag108
ag107
ag107
asba(iworkloadfiles.workloads
Workload
p142
(dp143
g6
(lp144
g106
ag102
ag102
ag99
ag102
ag106
ag107
ag107
asba(iworkloadfiles.workloads
Workload
p145
(dp146
g6
(lp147
g108
ag106
ag100
ag98
ag100
ag99
ag99
ag100
asbasS'l'
p148
(lp149
(iworkloadfiles.workloads
Workload
p150
(dp151
g6
(lp152
S's6-gobmk'
p153
aS'perlbmk0'
p154
aS'gzip0'
p155
aS'eon0'
p156
ag156
ag156
aS's6-h264ref'
p157
aS'crafty0'
p158
asba(iworkloadfiles.workloads
Workload
p159
(dp160
g6
(lp161
g154
ag153
ag156
ag158
ag156
aS'sixtrack0'
p162
aS's6-sjeng'
p163
aS's6-dealII'
p164
asba(iworkloadfiles.workloads
Workload
p165
(dp166
g6
(lp167
g162
ag162
aS'bzip0'
p168
ag158
aS'vortex10'
p169
aS's6-gamess'
p170
ag155
ag158
asba(iworkloadfiles.workloads
Workload
p171
(dp172
g6
(lp173
S's6-povray'
p174
aS's6-wrf'
p175
ag158
aS's6-namd'
p176
ag163
ag169
ag169
ag169
asba(iworkloadfiles.workloads
Workload
p177
(dp178
g6
(lp179
g176
ag164
ag176
aS's6-bwaves'
p180
ag170
ag170
ag176
ag176
asbassI2
(dp181
g2
(lp182
(iworkloadfiles.workloads
Workload
p183
(dp184
g6
(lp185
g15
ag10
asba(iworkloadfiles.workloads
Workload
p186
(dp187
g6
(lp188
g46
ag10
asba(iworkloadfiles.workloads
Workload
p189
(dp190
g6
(lp191
g9
ag15
asba(iworkloadfiles.workloads
Workload
p192
(dp193
g6
(lp194
g22
ag30
asba(iworkloadfiles.workloads
Workload
p195
(dp196
g6
(lp197
g21
ag50
asba(iworkloadfiles.workloads
Workload
p198
(dp199
g6
(lp200
g25
ag15
asba(iworkloadfiles.workloads
Workload
p201
(dp202
g6
(lp203
g30
ag9
asba(iworkloadfiles.workloads
Workload
p204
(dp205
g6
(lp206
g30
ag11
asba(iworkloadfiles.workloads
Workload
p207
(dp208
g6
(lp209
g10
ag22
asba(iworkloadfiles.workloads
Workload
p210
(dp211
g6
(lp212
g23
ag16
asba(iworkloadfiles.workloads
Workload
p213
(dp214
g6
(lp215
g11
ag16
asba(iworkloadfiles.workloads
Workload
p216
(dp217
g6
(lp218
g29
ag10
asba(iworkloadfiles.workloads
Workload
p219
(dp220
g6
(lp221
g46
ag8
asba(iworkloadfiles.workloads
Workload
p222
(dp223
g6
(lp224
g16
ag25
asba(iworkloadfiles.workloads
Workload
p225
(dp226
g6
(lp227
g50
ag30
asbasg66
(lp228
(iworkloadfiles.workloads
Workload
p229
(dp230
g6
(lp231
g73
ag80
asba(iworkloadfiles.workloads
Workload
p232
(dp233
g6
(lp234
g80
ag81
asba(iworkloadfiles.workloads
Workload
p235
(dp236
g6
(lp237
g73
ag86
asba(iworkloadfiles.workloads
Workload
p238
(dp239
g6
(lp240
g73
ag74
asba(iworkloadfiles.workloads
Workload
p241
(dp242
g6
(lp243
g86
ag74
asbasg93
(lp244
(iworkloadfiles.workloads
Workload
p245
(dp246
g6
(lp247
g98
ag101
asba(iworkloadfiles.workloads
Workload
p248
(dp249
g6
(lp250
g101
ag106
asba(iworkloadfiles.workloads
Workload
p251
(dp252
g6
(lp253
g107
ag102
asba(iworkloadfiles.workloads
Workload
p254
(dp255
g6
(lp256
g99
ag106
asba(iworkloadfiles.workloads
Workload
p257
(dp258
g6
(lp259
g106
ag98
asba(iworkloadfiles.workloads
Workload
p260
(dp261
g6
(lp262
g100
ag99
asba(iworkloadfiles.workloads
Workload
p263
(dp264
g6
(lp265
g102
ag106
asba(iworkloadfiles.workloads
Workload
p266
(dp267
g6
(lp268
g98
ag107
asba(iworkloadfiles.workloads
Workload
p269
(dp270
g6
(lp271
g101
ag106
asba(iworkloadfiles.workloads
Workload
p272
(dp273
g6
(lp274
g100
ag98
asba(iworkloadfiles.workloads
Workload
p275
(dp276
g6
(lp277
g102
ag102
asba(iworkloadfiles.workloads
Workload
p278
(dp279
g6
(lp280
g99
ag101
asba(iworkloadfiles.workloads
Workload
p281
(dp282
g6
(lp283
g98
ag101
asba(iworkloadfiles.workloads
Workload
p284
(dp285
g6
(lp286
g108
ag107
asba(iworkloadfiles.workloads
Workload
p287
(dp288
g6
(lp289
g102
ag99
asbasg148
(lp290
(iworkloadfiles.workloads
Workload
p291
(dp292
g6
(lp293
g175
ag169
asba(iworkloadfiles.workloads
Workload
p294
(dp295
g6
(lp296
g153
ag158
asba(iworkloadfiles.workloads
Workload
p297
(dp298
g6
(lp299
g174
ag170
asba(iworkloadfiles.workloads
Workload
p300
(dp301
g6
(lp302
g164
ag154
asba(iworkloadfiles.workloads
Workload
p303
(dp304
g6
(lp305
g154
ag170
asbassI4
(dp306
g2
(lp307
(iworkloadfiles.workloads
Workload
p308
(dp309
g6
(lp310
g9
ag16
ag25
ag25
asba(iworkloadfiles.workloads
Workload
p311
(dp312
g6
(lp313
g23
ag25
ag46
ag50
asba(iworkloadfiles.workloads
Workload
p314
(dp315
g6
(lp316
g16
ag17
ag8
ag16
asba(iworkloadfiles.workloads
Workload
p317
(dp318
g6
(lp319
g29
ag24
ag29
ag8
asba(iworkloadfiles.workloads
Workload
p320
(dp321
g6
(lp322
g50
ag15
ag15
ag24
asba(iworkloadfiles.workloads
Workload
p323
(dp324
g6
(lp325
g30
ag29
ag9
ag16
asba(iworkloadfiles.workloads
Workload
p326
(dp327
g6
(lp328
g16
ag11
ag10
ag11
asba(iworkloadfiles.workloads
Workload
p329
(dp330
g6
(lp331
g22
ag15
ag8
ag30
asba(iworkloadfiles.workloads
Workload
p332
(dp333
g6
(lp334
g30
ag11
ag50
ag15
asba(iworkloadfiles.workloads
Workload
p335
(dp336
g6
(lp337
g25
ag15
ag30
ag23
asba(iworkloadfiles.workloads
Workload
p338
(dp339
g6
(lp340
g11
ag10
ag17
ag29
asba(iworkloadfiles.workloads
Workload
p341
(dp342
g6
(lp343
g16
ag8
ag25
ag25
asba(iworkloadfiles.workloads
Workload
p344
(dp345
g6
(lp346
g22
ag22
ag30
ag23
asba(iworkloadfiles.workloads
Workload
p347
(dp348
g6
(lp349
g10
ag21
ag22
ag50
asba(iworkloadfiles.workloads
Workload
p350
(dp351
g6
(lp352
g9
ag29
ag50
ag46
asbasg66
(lp353
(iworkloadfiles.workloads
Workload
p354
(dp355
g6
(lp356
g81
ag75
ag82
ag82
asba(iworkloadfiles.workloads
Workload
p357
(dp358
g6
(lp359
g74
ag75
ag86
ag76
asba(iworkloadfiles.workloads
Workload
p360
(dp361
g6
(lp362
g86
ag86
ag71
ag73
asba(iworkloadfiles.workloads
Workload
p363
(dp364
g6
(lp365
g75
ag81
ag80
ag82
asba(iworkloadfiles.workloads
Workload
p366
(dp367
g6
(lp368
g82
ag74
ag80
ag72
asbasg93
(lp369
(iworkloadfiles.workloads
Workload
p370
(dp371
g6
(lp372
g102
ag107
ag106
ag100
asba(iworkloadfiles.workloads
Workload
p373
(dp374
g6
(lp375
g99
ag98
ag108
ag106
asba(iworkloadfiles.workloads
Workload
p376
(dp377
g6
(lp378
g106
ag99
ag101
ag100
asba(iworkloadfiles.workloads
Workload
p379
(dp380
g6
(lp381
g102
ag107
ag99
ag106
asba(iworkloadfiles.workloads
Workload
p382
(dp383
g6
(lp384
g100
ag101
ag101
ag101
asba(iworkloadfiles.workloads
Workload
p385
(dp386
g6
(lp387
g100
ag100
ag99
ag108
asba(iworkloadfiles.workloads
Workload
p388
(dp389
g6
(lp390
g108
ag106
ag108
ag98
asba(iworkloadfiles.workloads
Workload
p391
(dp392
g6
(lp393
g106
ag98
ag98
ag101
asba(iworkloadfiles.workloads
Workload
p394
(dp395
g6
(lp396
g100
ag106
ag108
ag101
asba(iworkloadfiles.workloads
Workload
p397
(dp398
g6
(lp399
g99
ag107
ag101
ag101
asba(iworkloadfiles.workloads
Workload
p400
(dp401
g6
(lp402
g98
ag106
ag101
ag108
asba(iworkloadfiles.workloads
Workload
p403
(dp404
g6
(lp405
g98
ag100
ag101
ag102
asba(iworkloadfiles.workloads
Workload
p406
(dp407
g6
(lp408
g108
ag107
ag99
ag107
asba(iworkloadfiles.workloads
Workload
p409
(dp410
g6
(lp411
g102
ag99
ag100
ag108
asba(iworkloadfiles.workloads
Workload
p412
(dp413
g6
(lp414
g108
ag106
ag106
ag102
asbasg148
(lp415
(iworkloadfiles.workloads
Workload
p416
(dp417
g6
(lp418
g169
aS's6-tonto'
p419
ag156
ag176
asba(iworkloadfiles.workloads
Workload
p420
(dp421
g6
(lp422
g419
ag174
ag154
ag162
asba(iworkloadfiles.workloads
Workload
p423
(dp424
g6
(lp425
g180
ag175
ag158
ag419
asba(iworkloadfiles.workloads
Workload
p426
(dp427
g6
(lp428
g174
ag154
ag168
ag158
asba(iworkloadfiles.workloads
Workload
p429
(dp430
g6
(lp431
g155
ag155
ag162
ag156
asbass.