(dp0
I8
(dp1
S'a'
p2
(lp3
(iworkloadfiles.workloads
Workload
p4
(dp5
S'benchmarks'
p6
(lp7
S's6-sphinx3'
p8
aS's6-lbm'
p9
aS'facerec0'
p10
aS'galgel0'
p11
aS's6-omnetpp'
p12
aS'apsi0'
p13
aS'mcf0'
p14
aS'art0'
p15
asba(iworkloadfiles.workloads
Workload
p16
(dp17
g6
(lp18
g13
ag8
ag11
ag14
aS'ammp0'
p19
ag15
ag12
ag9
asba(iworkloadfiles.workloads
Workload
p20
(dp21
g6
(lp22
g14
ag10
ag15
ag12
ag13
ag19
ag9
ag8
asba(iworkloadfiles.workloads
Workload
p23
(dp24
g6
(lp25
g19
ag9
ag13
ag11
ag15
ag8
ag14
ag10
asba(iworkloadfiles.workloads
Workload
p26
(dp27
g6
(lp28
g13
ag11
ag8
ag9
ag14
ag12
ag15
ag19
asbasS'b'
p29
(lp30
(iworkloadfiles.workloads
Workload
p31
(dp32
g6
(lp33
S'applu0'
p34
aS's6-cactusADM'
p35
aS'mgrid0'
p36
aS'wupwise0'
p37
aS'equake0'
p38
aS's6-leslie3d'
p39
aS's6-gemsFDTD'
p40
aS's6-milc'
p41
asba(iworkloadfiles.workloads
Workload
p42
(dp43
g6
(lp44
S'lucas0'
p45
ag40
aS's6-mcf'
p46
aS'swim0'
p47
ag36
ag34
aS's6-zeusmp'
p48
ag38
asba(iworkloadfiles.workloads
Workload
p49
(dp50
g6
(lp51
S's6-libquantum'
p52
ag46
ag45
ag34
ag48
ag37
ag40
ag41
asba(iworkloadfiles.workloads
Workload
p53
(dp54
g6
(lp55
g38
ag37
ag41
ag39
ag48
ag34
ag45
ag47
asba(iworkloadfiles.workloads
Workload
p56
(dp57
g6
(lp58
g45
ag40
ag41
ag39
ag34
ag52
ag37
ag46
asba(iworkloadfiles.workloads
Workload
p59
(dp60
g6
(lp61
g45
ag36
ag46
ag39
ag35
ag47
ag41
ag38
asba(iworkloadfiles.workloads
Workload
p62
(dp63
g6
(lp64
g35
ag48
ag41
ag36
ag37
ag34
ag46
ag39
asba(iworkloadfiles.workloads
Workload
p65
(dp66
g6
(lp67
g37
ag45
ag41
ag36
ag48
ag46
ag34
ag35
asba(iworkloadfiles.workloads
Workload
p68
(dp69
g6
(lp70
g47
ag45
ag36
ag40
ag46
ag37
ag34
ag39
asba(iworkloadfiles.workloads
Workload
p71
(dp72
g6
(lp73
g45
ag35
ag41
ag40
ag52
ag39
ag48
ag46
asbasS'n'
p74
(lp75
(iworkloadfiles.workloads
Workload
p76
(dp77
g6
(lp78
S's6-dealII'
p79
aS's6-gobmk'
p80
aS's6-calculix'
p81
ag48
aS'vortex10'
p82
ag36
aS's6-h264ref'
p83
aS's6-gromacs'
p84
asba(iworkloadfiles.workloads
Workload
p85
(dp86
g6
(lp87
S's6-gcc'
p88
ag83
ag34
aS'crafty0'
p89
ag11
ag15
ag46
aS'perlbmk0'
p90
asba(iworkloadfiles.workloads
Workload
p91
(dp92
g6
(lp93
g47
aS's6-bwaves'
p94
aS's6-gamess'
p95
ag14
aS'fma3d0'
p96
ag46
aS'sixtrack0'
p97
aS'twolf0'
p98
asba(iworkloadfiles.workloads
Workload
p99
(dp100
g6
(lp101
g97
ag81
aS's6-hmmer'
p102
ag94
aS's6-soplex'
p103
ag84
ag45
aS'gzip0'
p104
asba(iworkloadfiles.workloads
Workload
p105
(dp106
g6
(lp107
g10
ag48
ag103
ag9
ag97
ag46
aS's6-sjeng'
p108
ag37
asba(iworkloadfiles.workloads
Workload
p109
(dp110
g6
(lp111
g37
ag13
aS'vpr0'
p112
ag38
aS's6-astar'
p113
ag96
aS'gap0'
p114
aS'mesa0'
p115
asba(iworkloadfiles.workloads
Workload
p116
(dp117
g6
(lp118
S'eon0'
p119
ag52
ag112
ag45
ag80
ag12
ag90
ag115
asba(iworkloadfiles.workloads
Workload
p120
(dp121
g6
(lp122
S'gcc0'
p123
ag45
ag37
ag38
ag84
ag48
ag79
ag36
asba(iworkloadfiles.workloads
Workload
p124
(dp125
g6
(lp126
g89
ag112
ag46
aS's6-wrf'
p127
ag10
ag12
ag35
ag48
asba(iworkloadfiles.workloads
Workload
p128
(dp129
g6
(lp130
g9
ag98
ag112
ag114
ag119
ag113
ag80
ag37
asba(iworkloadfiles.workloads
Workload
p131
(dp132
g6
(lp133
g95
ag84
ag114
ag52
ag48
ag119
aS's6-namd'
p134
ag8
asba(iworkloadfiles.workloads
Workload
p135
(dp136
g6
(lp137
S'parser0'
p138
ag112
ag15
ag113
ag9
ag96
ag95
ag89
asba(iworkloadfiles.workloads
Workload
p139
(dp140
g6
(lp141
g94
ag83
ag138
ag84
ag103
ag108
ag119
ag127
asba(iworkloadfiles.workloads
Workload
p142
(dp143
g6
(lp144
g35
ag10
ag97
ag19
aS's6-bzip2'
p145
ag103
ag134
ag138
asba(iworkloadfiles.workloads
Workload
p146
(dp147
g6
(lp148
g9
ag83
ag134
ag95
ag13
ag41
ag8
ag34
asba(iworkloadfiles.workloads
Workload
p149
(dp150
g6
(lp151
g39
ag46
ag82
ag13
ag41
ag34
ag103
ag79
asba(iworkloadfiles.workloads
Workload
p152
(dp153
g6
(lp154
g89
aS's6-povray'
p155
ag47
ag115
ag52
ag45
ag112
ag103
asba(iworkloadfiles.workloads
Workload
p156
(dp157
g6
(lp158
S'bzip0'
p159
ag37
ag39
ag10
ag155
ag95
ag34
ag104
asba(iworkloadfiles.workloads
Workload
p160
(dp161
g6
(lp162
g9
ag89
ag41
ag82
ag84
ag94
ag12
ag145
asba(iworkloadfiles.workloads
Workload
p163
(dp164
g6
(lp165
g39
ag89
ag37
ag94
ag15
ag102
ag82
ag46
asbassI2
(dp166
g2
(lp167
(iworkloadfiles.workloads
Workload
p168
(dp169
g6
(lp170
g13
ag14
asba(iworkloadfiles.workloads
Workload
p171
(dp172
g6
(lp173
g15
ag12
asba(iworkloadfiles.workloads
Workload
p174
(dp175
g6
(lp176
g12
ag8
asba(iworkloadfiles.workloads
Workload
p177
(dp178
g6
(lp179
g14
ag10
asba(iworkloadfiles.workloads
Workload
p180
(dp181
g6
(lp182
g14
ag11
asbasS'c'
p183
(lp184
(iworkloadfiles.workloads
Workload
p185
(dp186
g6
(lp187
g84
ag102
asba(iworkloadfiles.workloads
Workload
p188
(dp189
g6
(lp190
g103
ag98
asba(iworkloadfiles.workloads
Workload
p191
(dp192
g6
(lp193
g102
ag84
asba(iworkloadfiles.workloads
Workload
p194
(dp195
g6
(lp196
g113
ag103
asba(iworkloadfiles.workloads
Workload
p197
(dp198
g6
(lp199
g113
ag112
asbasg29
(lp200
(iworkloadfiles.workloads
Workload
p201
(dp202
g6
(lp203
g46
ag37
asba(iworkloadfiles.workloads
Workload
p204
(dp205
g6
(lp206
g36
ag41
asba(iworkloadfiles.workloads
Workload
p207
(dp208
g6
(lp209
g52
ag36
asba(iworkloadfiles.workloads
Workload
p210
(dp211
g6
(lp212
g52
ag35
asba(iworkloadfiles.workloads
Workload
p213
(dp214
g6
(lp215
g37
ag35
asba(iworkloadfiles.workloads
Workload
p216
(dp217
g6
(lp218
g48
ag38
asba(iworkloadfiles.workloads
Workload
p219
(dp220
g6
(lp221
g36
ag40
asba(iworkloadfiles.workloads
Workload
p222
(dp223
g6
(lp224
g38
ag47
asba(iworkloadfiles.workloads
Workload
p225
(dp226
g6
(lp227
g47
ag39
asba(iworkloadfiles.workloads
Workload
p228
(dp229
g6
(lp230
g52
ag35
asbasg74
(lp231
(iworkloadfiles.workloads
Workload
p232
(dp233
g6
(lp234
g47
ag11
asba(iworkloadfiles.workloads
Workload
p235
(dp236
g6
(lp237
g89
ag47
asba(iworkloadfiles.workloads
Workload
p238
(dp239
g6
(lp240
g138
ag34
asba(iworkloadfiles.workloads
Workload
p241
(dp242
g6
(lp243
g83
ag19
asba(iworkloadfiles.workloads
Workload
p244
(dp245
g6
(lp246
g19
ag37
asba(iworkloadfiles.workloads
Workload
p247
(dp248
g6
(lp249
g34
aS's6-tonto'
p250
asba(iworkloadfiles.workloads
Workload
p251
(dp252
g6
(lp253
g12
ag52
asba(iworkloadfiles.workloads
Workload
p254
(dp255
g6
(lp256
g159
ag41
asba(iworkloadfiles.workloads
Workload
p257
(dp258
g6
(lp259
g114
ag45
asba(iworkloadfiles.workloads
Workload
p260
(dp261
g6
(lp262
g127
ag83
asba(iworkloadfiles.workloads
Workload
p263
(dp264
g6
(lp265
g80
ag94
asba(iworkloadfiles.workloads
Workload
p266
(dp267
g6
(lp268
g79
ag35
asba(iworkloadfiles.workloads
Workload
p269
(dp270
g6
(lp271
g47
ag112
asba(iworkloadfiles.workloads
Workload
p272
(dp273
g6
(lp274
g15
ag34
asba(iworkloadfiles.workloads
Workload
p275
(dp276
g6
(lp277
g37
ag250
asba(iworkloadfiles.workloads
Workload
p278
(dp279
g6
(lp280
g155
ag15
asba(iworkloadfiles.workloads
Workload
p281
(dp282
g6
(lp283
g12
ag45
asba(iworkloadfiles.workloads
Workload
p284
(dp285
g6
(lp286
g40
ag115
asba(iworkloadfiles.workloads
Workload
p287
(dp288
g6
(lp289
g34
ag36
asba(iworkloadfiles.workloads
Workload
p290
(dp291
g6
(lp292
g80
ag36
asbassI4
(dp293
g2
(lp294
(iworkloadfiles.workloads
Workload
p295
(dp296
g6
(lp297
g13
ag8
ag10
ag11
asba(iworkloadfiles.workloads
Workload
p298
(dp299
g6
(lp300
g8
ag19
ag14
ag13
asba(iworkloadfiles.workloads
Workload
p301
(dp302
g6
(lp303
g9
ag10
ag14
ag8
asba(iworkloadfiles.workloads
Workload
p304
(dp305
g6
(lp306
g19
ag8
ag9
ag14
asba(iworkloadfiles.workloads
Workload
p307
(dp308
g6
(lp309
g12
ag19
ag15
ag13
asbasg183
(lp310
(iworkloadfiles.workloads
Workload
p311
(dp312
g6
(lp313
g103
ag113
ag102
ag112
asba(iworkloadfiles.workloads
Workload
p314
(dp315
g6
(lp316
g138
ag98
ag113
ag112
asba(iworkloadfiles.workloads
Workload
p317
(dp318
g6
(lp319
g113
ag138
ag103
ag112
asba(iworkloadfiles.workloads
Workload
p320
(dp321
g6
(lp322
g138
ag113
ag112
ag103
asba(iworkloadfiles.workloads
Workload
p323
(dp324
g6
(lp325
g102
ag84
ag138
ag112
asbasg29
(lp326
(iworkloadfiles.workloads
Workload
p327
(dp328
g6
(lp329
g47
ag45
ag40
ag39
asba(iworkloadfiles.workloads
Workload
p330
(dp331
g6
(lp332
g34
ag46
ag36
ag39
asba(iworkloadfiles.workloads
Workload
p333
(dp334
g6
(lp335
g39
ag34
ag41
ag52
asba(iworkloadfiles.workloads
Workload
p336
(dp337
g6
(lp338
g47
ag48
ag52
ag35
asba(iworkloadfiles.workloads
Workload
p339
(dp340
g6
(lp341
g46
ag37
ag38
ag40
asba(iworkloadfiles.workloads
Workload
p342
(dp343
g6
(lp344
g39
ag35
ag34
ag37
asba(iworkloadfiles.workloads
Workload
p345
(dp346
g6
(lp347
g39
ag40
ag47
ag46
asba(iworkloadfiles.workloads
Workload
p348
(dp349
g6
(lp350
g37
ag48
ag47
ag46
asba(iworkloadfiles.workloads
Workload
p351
(dp352
g6
(lp353
g52
ag34
ag39
ag45
asba(iworkloadfiles.workloads
Workload
p354
(dp355
g6
(lp356
g36
ag52
ag48
ag38
asbasg74
(lp357
(iworkloadfiles.workloads
Workload
p358
(dp359
g6
(lp360
g97
ag115
ag41
ag113
asba(iworkloadfiles.workloads
Workload
p361
(dp362
g6
(lp363
g127
ag138
ag96
ag38
asba(iworkloadfiles.workloads
Workload
p364
(dp365
g6
(lp366
g103
ag36
ag98
ag13
asba(iworkloadfiles.workloads
Workload
p367
(dp368
g6
(lp369
g97
ag34
ag36
ag40
asba(iworkloadfiles.workloads
Workload
p370
(dp371
g6
(lp372
g13
ag103
ag80
ag123
asba(iworkloadfiles.workloads
Workload
p373
(dp374
g6
(lp375
g127
ag79
ag8
ag250
asba(iworkloadfiles.workloads
Workload
p376
(dp377
g6
(lp378
g79
ag114
ag82
ag37
asba(iworkloadfiles.workloads
Workload
p379
(dp380
g6
(lp381
g96
ag14
ag45
ag127
asba(iworkloadfiles.workloads
Workload
p382
(dp383
g6
(lp384
g34
ag35
ag115
ag97
asba(iworkloadfiles.workloads
Workload
p385
(dp386
g6
(lp387
g9
ag127
ag80
ag41
asba(iworkloadfiles.workloads
Workload
p388
(dp389
g6
(lp390
g114
ag11
ag8
ag102
asba(iworkloadfiles.workloads
Workload
p391
(dp392
g6
(lp393
g46
ag48
ag14
ag102
asba(iworkloadfiles.workloads
Workload
p394
(dp395
g6
(lp396
g145
ag103
ag114
ag9
asba(iworkloadfiles.workloads
Workload
p397
(dp398
g6
(lp399
g89
ag159
ag108
ag113
asba(iworkloadfiles.workloads
Workload
p400
(dp401
g6
(lp402
g47
ag119
ag81
ag36
asba(iworkloadfiles.workloads
Workload
p403
(dp404
g6
(lp405
g108
ag52
ag97
ag102
asba(iworkloadfiles.workloads
Workload
p406
(dp407
g6
(lp408
g88
ag250
ag98
ag95
asba(iworkloadfiles.workloads
Workload
p409
(dp410
g6
(lp411
g47
ag45
ag113
ag11
asba(iworkloadfiles.workloads
Workload
p412
(dp413
g6
(lp414
g15
ag48
ag14
ag115
asba(iworkloadfiles.workloads
Workload
p415
(dp416
g6
(lp417
g127
ag14
ag37
ag34
asbass.