(dp0
I8
(dp1
S'a'
p2
(lp3
(iworkloadfiles.workloads
Workload
p4
(dp5
S'benchmarks'
p6
(lp7
S's6-sjeng'
p8
aS's6-zeusmp'
p9
aS'parser0'
p10
aS's6-sphinx3'
p11
aS's6-dealII'
p12
aS'equake0'
p13
aS's6-povray'
p14
aS'wupwise0'
p15
asba(iworkloadfiles.workloads
Workload
p16
(dp17
g6
(lp18
S'ammp0'
p19
aS'eon0'
p20
ag13
aS's6-gcc'
p21
aS'perlbmk0'
p22
aS's6-cactusADM'
p23
aS'apsi0'
p24
aS's6-h264ref'
p25
asba(iworkloadfiles.workloads
Workload
p26
(dp27
g6
(lp28
g14
ag8
aS's6-gromacs'
p29
aS'vortex10'
p30
aS'gcc0'
p31
aS's6-libquantum'
p32
aS's6-omnetpp'
p33
aS'swim0'
p34
asba(iworkloadfiles.workloads
Workload
p35
(dp36
g6
(lp37
S'sixtrack0'
p38
ag22
ag24
aS'vpr0'
p39
aS's6-soplex'
p40
aS'gap0'
p41
aS's6-bwaves'
p42
aS'mesa0'
p43
asba(iworkloadfiles.workloads
Workload
p44
(dp45
g6
(lp46
g15
aS'twolf0'
p47
aS's6-lbm'
p48
aS'crafty0'
p49
ag9
ag25
ag23
ag42
asba(iworkloadfiles.workloads
Workload
p50
(dp51
g6
(lp52
g23
aS'applu0'
p53
aS's6-hmmer'
p54
aS's6-astar'
p55
ag40
ag25
ag9
ag41
asba(iworkloadfiles.workloads
Workload
p56
(dp57
g6
(lp58
g48
ag47
ag20
ag38
ag13
ag33
aS's6-bzip2'
p59
ag29
asba(iworkloadfiles.workloads
Workload
p60
(dp61
g6
(lp62
g33
ag9
ag21
aS'art0'
p63
ag43
ag55
ag59
ag30
asba(iworkloadfiles.workloads
Workload
p64
(dp65
g6
(lp66
g23
aS's6-mcf'
p67
ag20
aS's6-namd'
p68
ag13
aS'bzip0'
p69
ag43
ag21
asba(iworkloadfiles.workloads
Workload
p70
(dp71
g6
(lp72
g34
ag13
aS'fma3d0'
p73
ag40
ag54
ag22
ag42
aS's6-calculix'
p74
asbasS'h'
p75
(lp76
(iworkloadfiles.workloads
Workload
p77
(dp78
g6
(lp79
g59
ag67
ag39
ag59
ag54
ag54
ag19
ag39
asba(iworkloadfiles.workloads
Workload
p80
(dp81
g6
(lp82
g47
ag48
ag54
ag11
ag39
ag47
ag39
ag63
asba(iworkloadfiles.workloads
Workload
p83
(dp84
g6
(lp85
g54
ag67
ag63
ag19
ag11
ag67
ag19
ag59
asba(iworkloadfiles.workloads
Workload
p86
(dp87
g6
(lp88
g47
ag67
ag47
ag59
ag67
ag63
ag48
ag48
asba(iworkloadfiles.workloads
Workload
p89
(dp90
g6
(lp91
g63
aS'galgel0'
p92
ag48
ag67
ag47
ag92
ag19
ag63
asba(iworkloadfiles.workloads
Workload
p93
(dp94
g6
(lp95
g54
ag47
ag54
ag39
ag59
ag48
ag59
ag11
asba(iworkloadfiles.workloads
Workload
p96
(dp97
g6
(lp98
g59
ag19
ag11
ag67
ag48
ag54
ag59
ag63
asba(iworkloadfiles.workloads
Workload
p99
(dp100
g6
(lp101
g92
ag54
ag48
ag11
ag54
ag11
ag39
ag48
asba(iworkloadfiles.workloads
Workload
p102
(dp103
g6
(lp104
g19
ag59
ag48
ag54
ag47
ag47
ag19
ag48
asba(iworkloadfiles.workloads
Workload
p105
(dp106
g6
(lp107
g39
ag59
ag54
ag54
ag67
ag11
ag11
ag92
asbasS's'
p108
(lp109
(iworkloadfiles.workloads
Workload
p110
(dp111
g6
(lp112
g9
aS's6-milc'
p113
aS's6-gemsFDTD'
p114
ag13
ag33
ag113
ag33
ag23
asba(iworkloadfiles.workloads
Workload
p115
(dp116
g6
(lp117
g42
ag9
ag42
ag9
ag114
ag23
aS'lucas0'
p118
ag118
asba(iworkloadfiles.workloads
Workload
p119
(dp120
g6
(lp121
g113
ag118
ag13
ag53
ag13
ag33
ag34
ag118
asba(iworkloadfiles.workloads
Workload
p122
(dp123
g6
(lp124
g13
ag33
ag118
ag118
ag34
ag114
ag33
ag53
asba(iworkloadfiles.workloads
Workload
p125
(dp126
g6
(lp127
g9
ag23
ag42
ag42
ag113
ag114
ag113
ag23
asba(iworkloadfiles.workloads
Workload
p128
(dp129
g6
(lp130
g114
ag113
ag113
ag33
ag33
ag13
ag42
ag114
asba(iworkloadfiles.workloads
Workload
p131
(dp132
g6
(lp133
g113
ag34
ag33
ag23
ag42
ag53
ag42
ag113
asba(iworkloadfiles.workloads
Workload
p134
(dp135
g6
(lp136
g9
ag23
ag118
ag53
ag33
ag53
ag42
ag13
asba(iworkloadfiles.workloads
Workload
p137
(dp138
g6
(lp139
g113
ag9
ag53
ag113
ag9
ag23
ag53
ag13
asba(iworkloadfiles.workloads
Workload
p140
(dp141
g6
(lp142
g114
ag42
ag113
ag42
ag34
ag114
ag9
ag23
asbasS'm'
p143
(lp144
(iworkloadfiles.workloads
Workload
p145
(dp146
g6
(lp147
g41
ag31
aS'mgrid0'
p148
ag24
ag43
ag10
ag69
ag12
asba(iworkloadfiles.workloads
Workload
p149
(dp150
g6
(lp151
g148
aS'facerec0'
p152
ag55
ag68
ag41
ag43
ag73
aS's6-leslie3d'
p153
asba(iworkloadfiles.workloads
Workload
p154
(dp155
g6
(lp156
g29
ag32
ag21
ag41
ag24
ag10
ag31
ag68
asba(iworkloadfiles.workloads
Workload
p157
(dp158
g6
(lp159
g73
ag15
ag30
ag32
ag43
ag152
ag69
ag41
asba(iworkloadfiles.workloads
Workload
p160
(dp161
g6
(lp162
g31
ag43
ag68
ag30
ag41
ag69
ag32
ag152
asba(iworkloadfiles.workloads
Workload
p163
(dp164
g6
(lp165
g41
ag25
ag40
ag43
ag68
ag73
ag152
ag24
asba(iworkloadfiles.workloads
Workload
p166
(dp167
g6
(lp168
g12
ag148
ag32
ag73
ag152
ag69
ag40
ag21
asba(iworkloadfiles.workloads
Workload
p169
(dp170
g6
(lp171
g10
ag69
ag55
ag32
ag41
ag15
ag24
ag153
asba(iworkloadfiles.workloads
Workload
p172
(dp173
g6
(lp174
g32
ag29
ag40
ag41
ag15
ag152
ag25
ag21
asba(iworkloadfiles.workloads
Workload
p175
(dp176
g6
(lp177
g15
ag29
ag69
ag25
ag32
ag43
ag73
ag152
asbasS'l'
p178
(lp179
(iworkloadfiles.workloads
Workload
p180
(dp181
g6
(lp182
g49
ag8
ag14
aS's6-tonto'
p183
ag49
ag20
ag8
ag38
asba(iworkloadfiles.workloads
Workload
p184
(dp185
g6
(lp186
S's6-gobmk'
p187
aS'gzip0'
p188
ag74
ag74
ag38
ag183
ag188
ag183
asba(iworkloadfiles.workloads
Workload
p189
(dp190
g6
(lp191
g74
ag38
aS's6-gamess'
p192
ag49
ag74
ag187
ag20
ag8
asba(iworkloadfiles.workloads
Workload
p193
(dp194
g6
(lp195
g183
ag192
ag49
ag188
ag187
ag8
ag14
ag49
asba(iworkloadfiles.workloads
Workload
p196
(dp197
g6
(lp198
g8
ag38
ag38
ag187
ag20
ag188
ag188
ag183
asbassI2
(dp199
g2
(lp200
(iworkloadfiles.workloads
Workload
p201
(dp202
g6
(lp203
g25
ag19
asba(iworkloadfiles.workloads
Workload
p204
(dp205
g6
(lp206
g69
ag31
asba(iworkloadfiles.workloads
Workload
p207
(dp208
g6
(lp209
g12
ag10
asba(iworkloadfiles.workloads
Workload
p210
(dp211
g6
(lp212
g22
ag24
asba(iworkloadfiles.workloads
Workload
p213
(dp214
g6
(lp215
g192
ag63
asba(iworkloadfiles.workloads
Workload
p216
(dp217
g6
(lp218
g13
ag47
asba(iworkloadfiles.workloads
Workload
p219
(dp220
g6
(lp221
g12
ag53
asba(iworkloadfiles.workloads
Workload
p222
(dp223
g6
(lp224
g10
ag25
asba(iworkloadfiles.workloads
Workload
p225
(dp226
g6
(lp227
g40
ag22
asba(iworkloadfiles.workloads
Workload
p228
(dp229
g6
(lp230
g9
ag187
asbasg75
(lp231
(iworkloadfiles.workloads
Workload
p232
(dp233
g6
(lp234
g59
ag19
asba(iworkloadfiles.workloads
Workload
p235
(dp236
g6
(lp237
g11
ag19
asba(iworkloadfiles.workloads
Workload
p238
(dp239
g6
(lp240
g54
ag59
asba(iworkloadfiles.workloads
Workload
p241
(dp242
g6
(lp243
g11
ag48
asba(iworkloadfiles.workloads
Workload
p244
(dp245
g6
(lp246
g92
ag63
asba(iworkloadfiles.workloads
Workload
p247
(dp248
g6
(lp249
g47
ag59
asba(iworkloadfiles.workloads
Workload
p250
(dp251
g6
(lp252
g48
ag54
asba(iworkloadfiles.workloads
Workload
p253
(dp254
g6
(lp255
g48
ag59
asba(iworkloadfiles.workloads
Workload
p256
(dp257
g6
(lp258
g19
ag92
asba(iworkloadfiles.workloads
Workload
p259
(dp260
g6
(lp261
g63
ag67
asbasg108
(lp262
(iworkloadfiles.workloads
Workload
p263
(dp264
g6
(lp265
g42
ag34
asba(iworkloadfiles.workloads
Workload
p266
(dp267
g6
(lp268
g23
ag13
asba(iworkloadfiles.workloads
Workload
p269
(dp270
g6
(lp271
g114
ag9
asba(iworkloadfiles.workloads
Workload
p272
(dp273
g6
(lp274
g34
ag23
asba(iworkloadfiles.workloads
Workload
p275
(dp276
g6
(lp277
g33
ag113
asba(iworkloadfiles.workloads
Workload
p278
(dp279
g6
(lp280
g23
ag34
asba(iworkloadfiles.workloads
Workload
p281
(dp282
g6
(lp283
g34
ag114
asba(iworkloadfiles.workloads
Workload
p284
(dp285
g6
(lp286
g23
ag33
asba(iworkloadfiles.workloads
Workload
p287
(dp288
g6
(lp289
g23
ag13
asba(iworkloadfiles.workloads
Workload
p290
(dp291
g6
(lp292
g33
ag13
asbasg143
(lp293
(iworkloadfiles.workloads
Workload
p294
(dp295
g6
(lp296
g40
ag29
asba(iworkloadfiles.workloads
Workload
p297
(dp298
g6
(lp299
g15
ag10
asba(iworkloadfiles.workloads
Workload
p300
(dp301
g6
(lp302
g10
ag30
asba(iworkloadfiles.workloads
Workload
p303
(dp304
g6
(lp305
g68
ag41
asba(iworkloadfiles.workloads
Workload
p306
(dp307
g6
(lp308
g41
ag40
asba(iworkloadfiles.workloads
Workload
p309
(dp310
g6
(lp311
g43
ag68
asba(iworkloadfiles.workloads
Workload
p312
(dp313
g6
(lp314
g30
ag41
asba(iworkloadfiles.workloads
Workload
p315
(dp316
g6
(lp317
g40
ag69
asba(iworkloadfiles.workloads
Workload
p318
(dp319
g6
(lp320
g29
ag41
asba(iworkloadfiles.workloads
Workload
p321
(dp322
g6
(lp323
g25
ag40
asbasg178
(lp324
(iworkloadfiles.workloads
Workload
p325
(dp326
g6
(lp327
g20
ag49
asba(iworkloadfiles.workloads
Workload
p328
(dp329
g6
(lp330
g192
ag8
asba(iworkloadfiles.workloads
Workload
p331
(dp332
g6
(lp333
g22
ag14
asba(iworkloadfiles.workloads
Workload
p334
(dp335
g6
(lp336
g187
ag38
asba(iworkloadfiles.workloads
Workload
p337
(dp338
g6
(lp339
g183
ag8
asbassI4
(dp340
g2
(lp341
(iworkloadfiles.workloads
Workload
p342
(dp343
g6
(lp344
g20
ag24
ag63
ag38
asba(iworkloadfiles.workloads
Workload
p345
(dp346
g6
(lp347
g43
ag153
ag30
ag73
asba(iworkloadfiles.workloads
Workload
p348
(dp349
g6
(lp350
g19
ag153
ag47
ag54
asba(iworkloadfiles.workloads
Workload
p351
(dp352
g6
(lp353
g69
ag22
ag24
ag188
asba(iworkloadfiles.workloads
Workload
p354
(dp355
g6
(lp356
g31
ag67
ag20
ag68
asba(iworkloadfiles.workloads
Workload
p357
(dp358
g6
(lp359
g152
ag15
ag47
ag59
asba(iworkloadfiles.workloads
Workload
p360
(dp361
g6
(lp362
g23
ag183
ag53
ag14
asba(iworkloadfiles.workloads
Workload
p363
(dp364
g6
(lp365
g47
ag13
ag113
ag69
asba(iworkloadfiles.workloads
Workload
p366
(dp367
g6
(lp368
g42
ag153
ag118
ag48
asba(iworkloadfiles.workloads
Workload
p369
(dp370
g6
(lp371
g43
ag47
ag14
ag192
asbasg75
(lp372
(iworkloadfiles.workloads
Workload
p373
(dp374
g6
(lp375
g67
ag19
ag39
ag47
asba(iworkloadfiles.workloads
Workload
p376
(dp377
g6
(lp378
g67
ag59
ag39
ag48
asba(iworkloadfiles.workloads
Workload
p379
(dp380
g6
(lp381
g19
ag54
ag67
ag39
asba(iworkloadfiles.workloads
Workload
p382
(dp383
g6
(lp384
g19
ag59
ag11
ag54
asba(iworkloadfiles.workloads
Workload
p385
(dp386
g6
(lp387
g67
ag48
ag59
ag47
asba(iworkloadfiles.workloads
Workload
p388
(dp389
g6
(lp390
g59
ag67
ag63
ag19
asba(iworkloadfiles.workloads
Workload
p391
(dp392
g6
(lp393
g48
ag47
ag67
ag92
asba(iworkloadfiles.workloads
Workload
p394
(dp395
g6
(lp396
g11
ag48
ag63
ag19
asba(iworkloadfiles.workloads
Workload
p397
(dp398
g6
(lp399
g92
ag67
ag54
ag19
asba(iworkloadfiles.workloads
Workload
p400
(dp401
g6
(lp402
g67
ag11
ag39
ag92
asbasg108
(lp403
(iworkloadfiles.workloads
Workload
p404
(dp405
g6
(lp406
g53
ag13
ag118
ag33
asba(iworkloadfiles.workloads
Workload
p407
(dp408
g6
(lp409
g42
ag33
ag113
ag23
asba(iworkloadfiles.workloads
Workload
p410
(dp411
g6
(lp412
g118
ag114
ag34
ag53
asba(iworkloadfiles.workloads
Workload
p413
(dp414
g6
(lp415
g53
ag13
ag34
ag9
asba(iworkloadfiles.workloads
Workload
p416
(dp417
g6
(lp418
g118
ag113
ag114
ag42
asba(iworkloadfiles.workloads
Workload
p419
(dp420
g6
(lp421
g113
ag33
ag23
ag114
asba(iworkloadfiles.workloads
Workload
p422
(dp423
g6
(lp424
g114
ag113
ag23
ag42
asba(iworkloadfiles.workloads
Workload
p425
(dp426
g6
(lp427
g9
ag53
ag34
ag114
asba(iworkloadfiles.workloads
Workload
p428
(dp429
g6
(lp430
g42
ag13
ag23
ag113
asba(iworkloadfiles.workloads
Workload
p431
(dp432
g6
(lp433
g9
ag114
ag23
ag34
asbasg143
(lp434
(iworkloadfiles.workloads
Workload
p435
(dp436
g6
(lp437
g41
ag73
ag40
ag15
asba(iworkloadfiles.workloads
Workload
p438
(dp439
g6
(lp440
g12
ag41
ag15
ag29
asba(iworkloadfiles.workloads
Workload
p441
(dp442
g6
(lp443
g55
ag32
ag15
ag29
asba(iworkloadfiles.workloads
Workload
p444
(dp445
g6
(lp446
g153
ag41
ag24
ag21
asba(iworkloadfiles.workloads
Workload
p447
(dp448
g6
(lp449
g73
ag43
ag24
ag30
asba(iworkloadfiles.workloads
Workload
p450
(dp451
g6
(lp452
g152
ag32
ag68
ag30
asba(iworkloadfiles.workloads
Workload
p453
(dp454
g6
(lp455
g55
ag25
ag21
ag15
asba(iworkloadfiles.workloads
Workload
p456
(dp457
g6
(lp458
g10
ag41
ag30
ag43
asba(iworkloadfiles.workloads
Workload
p459
(dp460
g6
(lp461
g12
ag29
ag31
ag68
asba(iworkloadfiles.workloads
Workload
p462
(dp463
g6
(lp464
g73
ag10
ag25
ag153
asbasg178
(lp465
(iworkloadfiles.workloads
Workload
p466
(dp467
g6
(lp468
g187
ag20
ag183
ag49
asba(iworkloadfiles.workloads
Workload
p469
(dp470
g6
(lp471
g183
ag187
ag192
ag22
asba(iworkloadfiles.workloads
Workload
p472
(dp473
g6
(lp474
g187
ag74
ag14
ag38
asba(iworkloadfiles.workloads
Workload
p475
(dp476
g6
(lp477
g38
ag192
ag74
ag14
asba(iworkloadfiles.workloads
Workload
p478
(dp479
g6
(lp480
g74
ag22
ag49
ag183
asbass.