(dp0
I8
(dp1
S'a'
p2
(lp3
(iworkloadfiles.workloads
Workload
p4
(dp5
S'benchmarks'
p6
(lp7
S'ammp0'
p8
aS'equake0'
p9
aS'fma3d0'
p10
aS'vortex10'
p11
aS'mcf0'
p12
aS's6-mcf'
p13
aS's6-lbm'
p14
aS'apsi0'
p15
asba(iworkloadfiles.workloads
Workload
p16
(dp17
g6
(lp18
S'wupwise0'
p19
ag12
ag9
aS's6-sphinx3'
p20
aS's6-astar'
p21
ag15
aS's6-leslie3d'
p22
aS'facerec0'
p23
asba(iworkloadfiles.workloads
Workload
p24
(dp25
g6
(lp26
S's6-zeusmp'
p27
ag21
ag9
aS'galgel0'
p28
aS's6-omnetpp'
p29
ag13
ag19
aS's6-gcc'
p30
asba(iworkloadfiles.workloads
Workload
p31
(dp32
g6
(lp33
g23
aS'bzip0'
p34
ag29
ag9
ag8
ag11
aS's6-cactusADM'
p35
ag13
asba(iworkloadfiles.workloads
Workload
p36
(dp37
g6
(lp38
S's6-bzip2'
p39
ag29
ag34
ag23
ag22
ag20
ag30
ag27
asbasS'c'
p40
(lp41
sS'b'
p42
(lp43
(iworkloadfiles.workloads
Workload
p44
(dp45
g6
(lp46
S's6-milc'
p47
aS's6-libquantum'
p48
aS'mgrid0'
p49
aS's6-soplex'
p50
aS'lucas0'
p51
aS's6-gemsFDTD'
p52
aS'applu0'
p53
aS'swim0'
p54
asba(iworkloadfiles.workloads
Workload
p55
(dp56
g6
(lp57
g51
ag52
ag48
ag50
ag53
ag47
ag49
aS'gap0'
p58
asba(iworkloadfiles.workloads
Workload
p59
(dp60
g6
(lp61
g48
ag54
ag49
ag50
ag52
ag58
ag47
ag53
asba(iworkloadfiles.workloads
Workload
p62
(dp63
g6
(lp64
g58
ag48
ag52
ag51
ag53
ag47
ag50
ag49
asba(iworkloadfiles.workloads
Workload
p65
(dp66
g6
(lp67
g52
ag47
ag54
ag48
ag58
ag50
ag49
ag53
asbasS'n'
p68
(lp69
(iworkloadfiles.workloads
Workload
p70
(dp71
g6
(lp72
S's6-povray'
p73
aS's6-bwaves'
p74
aS's6-gromacs'
p75
aS's6-wrf'
p76
aS'crafty0'
p77
aS'gzip0'
p78
aS'mesa0'
p79
aS'eon0'
p80
asba(iworkloadfiles.workloads
Workload
p81
(dp82
g6
(lp83
S's6-gamess'
p84
aS's6-gobmk'
p85
aS'parser0'
p86
ag78
ag74
ag80
ag75
ag73
asba(iworkloadfiles.workloads
Workload
p87
(dp88
g6
(lp89
g80
ag75
ag86
ag77
ag79
aS's6-sjeng'
p90
ag78
ag85
asba(iworkloadfiles.workloads
Workload
p91
(dp92
g6
(lp93
g86
ag90
aS's6-namd'
p94
ag85
ag77
ag76
ag75
ag73
asba(iworkloadfiles.workloads
Workload
p95
(dp96
g6
(lp97
g79
ag80
ag94
ag78
ag73
ag86
aS's6-h264ref'
p98
ag85
asbassI16
(dp99
g2
(lp100
(iworkloadfiles.workloads
Workload
p101
(dp102
g6
(lp103
g22
ag15
ag21
ag9
ag10
ag34
ag19
ag14
ag13
ag12
ag20
ag8
ag23
ag28
ag27
ag35
asba(iworkloadfiles.workloads
Workload
p104
(dp105
g6
(lp106
g39
ag21
ag10
ag22
ag14
ag9
ag11
ag13
ag15
ag12
ag20
ag27
ag29
ag19
ag28
ag8
asba(iworkloadfiles.workloads
Workload
p107
(dp108
g6
(lp109
g10
ag12
ag27
ag20
ag13
ag23
ag9
ag8
ag22
ag34
ag14
ag19
ag35
ag28
ag21
ag11
asba(iworkloadfiles.workloads
Workload
p110
(dp111
g6
(lp112
g27
ag39
ag12
ag8
ag14
ag9
ag35
ag34
ag13
ag23
ag30
ag19
ag22
ag21
ag20
ag10
asba(iworkloadfiles.workloads
Workload
p113
(dp114
g6
(lp115
g27
ag10
ag23
ag34
ag11
ag22
ag9
ag39
ag15
ag13
ag30
ag14
ag28
ag12
ag35
ag19
asbasg40
(lp116
sg42
(lp117
sg68
(lp118
ssI4
(dp119
g2
(lp120
(iworkloadfiles.workloads
Workload
p121
(dp122
g6
(lp123
g20
ag11
ag35
ag23
asba(iworkloadfiles.workloads
Workload
p124
(dp125
g6
(lp126
g8
ag20
ag13
ag19
asba(iworkloadfiles.workloads
Workload
p127
(dp128
g6
(lp129
g29
ag30
ag21
ag20
asba(iworkloadfiles.workloads
Workload
p130
(dp131
g6
(lp132
g19
ag8
ag12
ag11
asba(iworkloadfiles.workloads
Workload
p133
(dp134
g6
(lp135
g29
ag22
ag15
ag12
asbasg40
(lp136
(iworkloadfiles.workloads
Workload
p137
(dp138
g6
(lp139
S'sixtrack0'
p140
aS's6-hmmer'
p141
aS's6-dealII'
p142
aS'twolf0'
p143
asba(iworkloadfiles.workloads
Workload
p144
(dp145
g6
(lp146
g141
ag140
ag142
ag143
asba(iworkloadfiles.workloads
Workload
p147
(dp148
g6
(lp149
g143
ag141
ag140
ag142
asba(iworkloadfiles.workloads
Workload
p150
(dp151
g6
(lp152
g142
ag140
aS'vpr0'
p153
ag141
asba(iworkloadfiles.workloads
Workload
p154
(dp155
g6
(lp156
g142
ag140
ag143
ag153
asbasg42
(lp157
(iworkloadfiles.workloads
Workload
p158
(dp159
g6
(lp160
g53
ag54
ag50
ag52
asba(iworkloadfiles.workloads
Workload
p161
(dp162
g6
(lp163
g53
ag58
ag47
ag51
asba(iworkloadfiles.workloads
Workload
p164
(dp165
g6
(lp166
g54
ag51
ag53
ag52
asba(iworkloadfiles.workloads
Workload
p167
(dp168
g6
(lp169
g47
ag51
ag50
ag58
asba(iworkloadfiles.workloads
Workload
p170
(dp171
g6
(lp172
g47
ag50
ag58
ag54
asbasg68
(lp173
(iworkloadfiles.workloads
Workload
p174
(dp175
g6
(lp176
g75
ag94
ag84
ag90
asba(iworkloadfiles.workloads
Workload
p177
(dp178
g6
(lp179
g84
ag98
ag76
ag73
asba(iworkloadfiles.workloads
Workload
p180
(dp181
g6
(lp182
g84
ag75
ag94
ag74
asba(iworkloadfiles.workloads
Workload
p183
(dp184
g6
(lp185
g78
ag84
ag76
ag80
asba(iworkloadfiles.workloads
Workload
p186
(dp187
g6
(lp188
g80
ag74
ag73
ag94
asbass.