(dp0
I8
(dp1
S'a'
p2
(lp3
(iworkloadfiles.workloads
Workload
p4
(dp5
S'benchmarks'
p6
(lp7
S'facerec0'
p8
aS's6-bzip2'
p9
aS's6-leslie3d'
p10
aS's6-sphinx3'
p11
aS's6-gcc'
p12
aS's6-zeusmp'
p13
aS'galgel0'
p14
aS'fma3d0'
p15
asba(iworkloadfiles.workloads
Workload
p16
(dp17
g6
(lp18
S's6-mcf'
p19
aS'equake0'
p20
aS's6-omnetpp'
p21
aS'bzip0'
p22
ag8
aS's6-lbm'
p23
ag15
ag13
asba(iworkloadfiles.workloads
Workload
p24
(dp25
g6
(lp26
S's6-cactusADM'
p27
ag11
aS'wupwise0'
p28
ag10
ag14
ag19
aS's6-astar'
p29
aS'mcf0'
p30
asba(iworkloadfiles.workloads
Workload
p31
(dp32
g6
(lp33
S'ammp0'
p34
ag21
aS'apsi0'
p35
ag27
ag30
aS'vortex10'
p36
ag29
ag11
asba(iworkloadfiles.workloads
Workload
p37
(dp38
g6
(lp39
g28
ag23
ag27
ag14
ag20
ag10
ag29
ag11
asbasS'c'
p40
(lp41
sS'b'
p42
(lp43
(iworkloadfiles.workloads
Workload
p44
(dp45
g6
(lp46
S's6-gemsFDTD'
p47
aS'gap0'
p48
aS'lucas0'
p49
aS'applu0'
p50
aS's6-milc'
p51
aS's6-soplex'
p52
aS's6-libquantum'
p53
aS'mgrid0'
p54
asba(iworkloadfiles.workloads
Workload
p55
(dp56
g6
(lp57
g47
ag51
aS'swim0'
p58
ag53
ag48
ag52
ag54
ag50
asba(iworkloadfiles.workloads
Workload
p59
(dp60
g6
(lp61
g49
ag58
ag52
ag47
ag54
ag53
ag51
ag50
asba(iworkloadfiles.workloads
Workload
p62
(dp63
g6
(lp64
g47
ag58
ag51
ag50
ag48
ag49
ag52
ag54
asba(iworkloadfiles.workloads
Workload
p65
(dp66
g6
(lp67
g53
ag48
ag47
ag49
ag51
ag54
ag58
ag50
asbasS'n'
p68
(lp69
(iworkloadfiles.workloads
Workload
p70
(dp71
g6
(lp72
S's6-gromacs'
p73
aS's6-namd'
p74
aS's6-wrf'
p75
aS's6-bwaves'
p76
aS'crafty0'
p77
aS's6-sjeng'
p78
aS'parser0'
p79
aS's6-h264ref'
p80
asba(iworkloadfiles.workloads
Workload
p81
(dp82
g6
(lp83
S's6-gamess'
p84
ag73
ag74
ag76
aS'eon0'
p85
ag79
aS's6-gobmk'
p86
aS'gzip0'
p87
asba(iworkloadfiles.workloads
Workload
p88
(dp89
g6
(lp90
g76
ag84
aS's6-povray'
p91
ag79
ag80
ag86
ag74
ag78
asba(iworkloadfiles.workloads
Workload
p92
(dp93
g6
(lp94
g79
ag75
ag78
ag87
aS'mesa0'
p95
ag73
ag74
ag76
asba(iworkloadfiles.workloads
Workload
p96
(dp97
g6
(lp98
g74
ag75
ag85
ag78
ag91
ag77
ag84
ag95
asbassI16
(dp99
g2
(lp100
(iworkloadfiles.workloads
Workload
p101
(dp102
g6
(lp103
g36
ag10
ag23
ag14
ag34
ag15
ag30
ag13
ag11
ag19
ag8
ag20
ag22
ag28
ag27
ag29
asba(iworkloadfiles.workloads
Workload
p104
(dp105
g6
(lp106
g36
ag13
ag9
ag30
ag34
ag23
ag20
ag27
ag22
ag19
ag8
ag12
ag28
ag10
ag29
ag11
asba(iworkloadfiles.workloads
Workload
p107
(dp108
g6
(lp109
g34
ag27
ag23
ag29
ag30
ag9
ag15
ag13
ag8
ag22
ag36
ag10
ag20
ag35
ag19
ag12
asba(iworkloadfiles.workloads
Workload
p110
(dp111
g6
(lp112
g22
ag23
ag14
ag30
ag13
ag27
ag28
ag29
ag19
ag10
ag12
ag36
ag20
ag11
ag21
ag9
asba(iworkloadfiles.workloads
Workload
p113
(dp114
g6
(lp115
g21
ag12
ag30
ag36
ag13
ag23
ag22
ag34
ag14
ag8
ag19
ag28
ag11
ag20
ag29
ag27
asbasg40
(lp116
sg42
(lp117
sg68
(lp118
ssI2
(dp119
g2
(lp120
(iworkloadfiles.workloads
Workload
p121
(dp122
g6
(lp123
g11
ag36
asba(iworkloadfiles.workloads
Workload
p124
(dp125
g6
(lp126
g27
ag8
asba(iworkloadfiles.workloads
Workload
p127
(dp128
g6
(lp129
g34
ag11
asba(iworkloadfiles.workloads
Workload
p130
(dp131
g6
(lp132
g19
ag28
asba(iworkloadfiles.workloads
Workload
p133
(dp134
g6
(lp135
g21
ag12
asbasg40
(lp136
(iworkloadfiles.workloads
Workload
p137
(dp138
g6
(lp139
S's6-hmmer'
p140
aS'vpr0'
p141
asba(iworkloadfiles.workloads
Workload
p142
(dp143
g6
(lp144
S'twolf0'
p145
ag140
asba(iworkloadfiles.workloads
Workload
p146
(dp147
g6
(lp148
g145
ag141
asba(iworkloadfiles.workloads
Workload
p149
(dp150
g6
(lp151
S's6-dealII'
p152
ag145
asba(iworkloadfiles.workloads
Workload
p153
(dp154
g6
(lp155
S'sixtrack0'
p156
ag141
asbasg42
(lp157
(iworkloadfiles.workloads
Workload
p158
(dp159
g6
(lp160
g52
ag48
asba(iworkloadfiles.workloads
Workload
p161
(dp162
g6
(lp163
g48
ag54
asba(iworkloadfiles.workloads
Workload
p164
(dp165
g6
(lp166
g51
ag52
asba(iworkloadfiles.workloads
Workload
p167
(dp168
g6
(lp169
g51
ag50
asba(iworkloadfiles.workloads
Workload
p170
(dp171
g6
(lp172
g52
ag51
asbasg68
(lp173
(iworkloadfiles.workloads
Workload
p174
(dp175
g6
(lp176
g73
ag75
asba(iworkloadfiles.workloads
Workload
p177
(dp178
g6
(lp179
g80
ag74
asba(iworkloadfiles.workloads
Workload
p180
(dp181
g6
(lp182
g78
ag84
asba(iworkloadfiles.workloads
Workload
p183
(dp184
g6
(lp185
g74
ag78
asba(iworkloadfiles.workloads
Workload
p186
(dp187
g6
(lp188
g87
ag78
asbassI4
(dp189
g2
(lp190
(iworkloadfiles.workloads
Workload
p191
(dp192
g6
(lp193
g36
ag29
ag21
ag34
asba(iworkloadfiles.workloads
Workload
p194
(dp195
g6
(lp196
g35
ag27
ag10
ag15
asba(iworkloadfiles.workloads
Workload
p197
(dp198
g6
(lp199
g35
ag34
ag27
ag10
asba(iworkloadfiles.workloads
Workload
p200
(dp201
g6
(lp202
g22
ag36
ag27
ag30
asba(iworkloadfiles.workloads
Workload
p203
(dp204
g6
(lp205
g10
ag9
ag15
ag35
asbasg40
(lp206
(iworkloadfiles.workloads
Workload
p207
(dp208
g6
(lp209
g152
ag156
ag140
ag145
asba(iworkloadfiles.workloads
Workload
p210
(dp211
g6
(lp212
g140
ag145
ag156
ag152
asba(iworkloadfiles.workloads
Workload
p213
(dp214
g6
(lp215
g140
ag145
ag156
ag152
asba(iworkloadfiles.workloads
Workload
p216
(dp217
g6
(lp218
g156
ag145
ag140
ag152
asba(iworkloadfiles.workloads
Workload
p219
(dp220
g6
(lp221
g141
ag152
ag140
ag156
asbasg42
(lp222
(iworkloadfiles.workloads
Workload
p223
(dp224
g6
(lp225
g53
ag58
ag49
ag48
asba(iworkloadfiles.workloads
Workload
p226
(dp227
g6
(lp228
g51
ag52
ag53
ag48
asba(iworkloadfiles.workloads
Workload
p229
(dp230
g6
(lp231
g53
ag54
ag51
ag52
asba(iworkloadfiles.workloads
Workload
p232
(dp233
g6
(lp234
g49
ag53
ag50
ag48
asba(iworkloadfiles.workloads
Workload
p235
(dp236
g6
(lp237
g53
ag52
ag50
ag47
asbasg68
(lp238
(iworkloadfiles.workloads
Workload
p239
(dp240
g6
(lp241
g91
ag74
ag75
ag84
asba(iworkloadfiles.workloads
Workload
p242
(dp243
g6
(lp244
g74
ag84
ag95
ag91
asba(iworkloadfiles.workloads
Workload
p245
(dp246
g6
(lp247
g78
ag87
ag77
ag95
asba(iworkloadfiles.workloads
Workload
p248
(dp249
g6
(lp250
g75
ag79
ag74
ag80
asba(iworkloadfiles.workloads
Workload
p251
(dp252
g6
(lp253
g80
ag86
ag95
ag77
asbass.