(dp0
I8
(dp1
S'a'
p2
(lp3
(iworkloadfiles.workloads
Workload
p4
(dp5
S'benchmarks'
p6
(lp7
S'ammp0'
p8
aS'equake0'
p9
aS's6-astar'
p10
aS'galgel0'
p11
aS's6-leslie3d'
p12
ag11
aS's6-cactusADM'
p13
ag9
asba(iworkloadfiles.workloads
Workload
p14
(dp15
g6
(lp16
g9
aS's6-zeusmp'
p17
aS's6-lbm'
p18
ag9
aS'vortex10'
p19
aS'fma3d0'
p20
ag19
ag11
asba(iworkloadfiles.workloads
Workload
p21
(dp22
g6
(lp23
g9
aS's6-sphinx3'
p24
aS'mcf0'
p25
ag20
aS'wupwise0'
p26
ag19
ag8
ag9
asba(iworkloadfiles.workloads
Workload
p27
(dp28
g6
(lp29
g9
ag20
ag19
ag25
aS's6-mcf'
p30
ag25
ag18
aS'apsi0'
p31
asba(iworkloadfiles.workloads
Workload
p32
(dp33
g6
(lp34
g26
ag25
ag9
ag24
ag10
ag25
ag31
ag12
asbasS'c'
p35
(lp36
(iworkloadfiles.workloads
Workload
p37
(dp38
g6
(lp39
S'vpr0'
p40
aS's6-dealII'
p41
aS'twolf0'
p42
aS's6-hmmer'
p43
aS'sixtrack0'
p44
ag43
ag43
ag43
asba(iworkloadfiles.workloads
Workload
p45
(dp46
g6
(lp47
g42
ag41
ag42
ag44
ag41
ag42
ag42
ag44
asba(iworkloadfiles.workloads
Workload
p48
(dp49
g6
(lp50
g43
ag41
ag44
ag41
ag41
ag40
ag42
ag42
asba(iworkloadfiles.workloads
Workload
p51
(dp52
g6
(lp53
g41
ag40
ag44
ag40
ag44
ag44
ag42
ag43
asba(iworkloadfiles.workloads
Workload
p54
(dp55
g6
(lp56
g40
ag41
ag44
ag42
ag42
ag41
ag44
ag43
asbasS'b'
p57
(lp58
(iworkloadfiles.workloads
Workload
p59
(dp60
g6
(lp61
S'swim0'
p62
aS'lucas0'
p63
aS's6-gemsFDTD'
p64
aS's6-libquantum'
p65
aS's6-soplex'
p66
aS'applu0'
p67
aS's6-milc'
p68
ag64
asba(iworkloadfiles.workloads
Workload
p69
(dp70
g6
(lp71
S'mgrid0'
p72
ag63
aS'gap0'
p73
ag65
ag62
ag72
ag66
ag64
asba(iworkloadfiles.workloads
Workload
p74
(dp75
g6
(lp76
g65
ag73
ag73
ag73
ag65
ag65
ag66
ag68
asba(iworkloadfiles.workloads
Workload
p77
(dp78
g6
(lp79
g68
ag64
ag68
ag66
ag64
ag66
ag67
ag73
asba(iworkloadfiles.workloads
Workload
p80
(dp81
g6
(lp82
g65
ag64
ag73
ag73
ag63
ag63
ag73
ag73
asbasS'n'
p83
(lp84
(iworkloadfiles.workloads
Workload
p85
(dp86
g6
(lp87
S's6-sjeng'
p88
aS's6-h264ref'
p89
aS'gzip0'
p90
aS's6-gamess'
p91
aS's6-wrf'
p92
aS's6-bwaves'
p93
ag90
aS'parser0'
p94
asba(iworkloadfiles.workloads
Workload
p95
(dp96
g6
(lp97
g94
aS's6-povray'
p98
aS's6-gromacs'
p99
ag98
ag94
ag98
aS'eon0'
p100
ag91
asba(iworkloadfiles.workloads
Workload
p101
(dp102
g6
(lp103
S's6-namd'
p104
aS'mesa0'
p105
ag89
ag94
ag89
ag93
ag100
ag90
asba(iworkloadfiles.workloads
Workload
p106
(dp107
g6
(lp108
S's6-gobmk'
p109
ag99
ag99
ag105
ag93
ag92
ag98
ag93
asba(iworkloadfiles.workloads
Workload
p110
(dp111
g6
(lp112
g99
ag92
ag98
aS'crafty0'
p113
ag90
ag90
ag105
ag100
asbassI16
(dp114
g2
(lp115
(iworkloadfiles.workloads
Workload
p116
(dp117
g6
(lp118
g18
aS's6-bzip2'
p119
ag8
aS'facerec0'
p120
ag8
ag8
ag25
ag8
ag18
ag24
ag19
ag31
ag17
ag24
ag31
ag8
asba(iworkloadfiles.workloads
Workload
p121
(dp122
g6
(lp123
S'bzip0'
p124
ag30
ag12
ag120
ag119
ag8
ag12
ag10
ag119
ag17
ag9
ag31
ag19
ag26
aS's6-omnetpp'
p125
ag24
asba(iworkloadfiles.workloads
Workload
p126
(dp127
g6
(lp128
g10
ag120
ag17
ag10
ag8
ag30
ag119
ag12
ag31
ag10
ag9
ag20
ag124
ag20
ag12
ag26
asba(iworkloadfiles.workloads
Workload
p129
(dp130
g6
(lp131
g18
ag30
ag10
ag31
ag10
ag25
ag9
ag20
ag24
ag18
ag8
ag120
ag20
ag11
ag17
ag18
asba(iworkloadfiles.workloads
Workload
p132
(dp133
g6
(lp134
g13
ag119
ag10
ag20
ag12
ag18
ag9
ag12
ag19
ag30
ag31
ag19
ag25
ag10
ag9
ag10
asbasg35
(lp135
(iworkloadfiles.workloads
Workload
p136
(dp137
g6
(lp138
g40
ag44
ag44
ag42
ag42
ag44
ag42
ag42
ag44
ag43
ag42
ag41
ag44
ag43
ag43
ag43
asba(iworkloadfiles.workloads
Workload
p139
(dp140
g6
(lp141
g40
ag40
ag42
ag40
ag40
ag41
ag40
ag41
ag41
ag44
ag42
ag43
ag40
ag44
ag42
ag43
asba(iworkloadfiles.workloads
Workload
p142
(dp143
g6
(lp144
g42
ag41
ag43
ag41
ag40
ag42
ag41
ag40
ag42
ag43
ag43
ag43
ag41
ag42
ag40
ag40
asba(iworkloadfiles.workloads
Workload
p145
(dp146
g6
(lp147
g43
ag43
ag44
ag41
ag41
ag42
ag43
ag42
ag41
ag41
ag44
ag42
ag44
ag43
ag40
ag43
asba(iworkloadfiles.workloads
Workload
p148
(dp149
g6
(lp150
g40
ag43
ag41
ag43
ag43
ag43
ag40
ag40
ag40
ag40
ag40
ag42
ag40
ag41
ag42
ag41
asbasg57
(lp151
(iworkloadfiles.workloads
Workload
p152
(dp153
g6
(lp154
g67
ag66
ag62
ag64
ag67
ag62
ag62
ag66
ag72
ag62
ag67
ag63
ag68
ag73
ag65
ag65
asba(iworkloadfiles.workloads
Workload
p155
(dp156
g6
(lp157
g63
ag64
ag66
ag73
ag72
ag63
ag63
ag67
ag67
ag73
ag65
ag64
ag63
ag67
ag67
ag73
asba(iworkloadfiles.workloads
Workload
p158
(dp159
g6
(lp160
g65
ag72
ag65
ag63
ag68
ag68
ag62
ag72
ag67
ag72
ag72
ag72
ag65
ag73
ag63
ag68
asba(iworkloadfiles.workloads
Workload
p161
(dp162
g6
(lp163
g63
ag63
ag62
ag73
ag68
ag63
ag64
ag72
ag65
ag63
ag65
ag66
ag72
ag68
ag73
ag64
asba(iworkloadfiles.workloads
Workload
p164
(dp165
g6
(lp166
g62
ag72
ag64
ag62
ag64
ag72
ag62
ag63
ag65
ag64
ag68
ag63
ag66
ag64
ag65
ag64
asbasg83
(lp167
(iworkloadfiles.workloads
Workload
p168
(dp169
g6
(lp170
g92
ag92
ag104
ag104
ag98
ag91
ag89
ag90
ag105
ag91
ag109
ag90
ag113
ag90
ag99
ag92
asba(iworkloadfiles.workloads
Workload
p171
(dp172
g6
(lp173
g104
ag94
ag113
ag92
ag109
ag94
ag113
ag113
ag89
ag109
ag93
ag99
ag94
ag89
ag113
ag113
asba(iworkloadfiles.workloads
Workload
p174
(dp175
g6
(lp176
g91
ag89
ag93
ag88
ag93
ag99
ag92
ag93
ag94
ag92
ag90
ag100
ag100
ag100
ag105
ag98
asba(iworkloadfiles.workloads
Workload
p177
(dp178
g6
(lp179
g92
ag94
ag100
ag98
ag100
ag113
ag88
ag91
ag113
ag113
ag98
ag98
ag89
ag104
ag90
ag113
asba(iworkloadfiles.workloads
Workload
p180
(dp181
g6
(lp182
g99
ag92
ag113
ag90
ag88
ag89
ag89
ag89
ag104
ag94
ag90
ag93
ag91
ag104
ag104
ag104
asbassI4
(dp183
g2
(lp184
(iworkloadfiles.workloads
Workload
p185
(dp186
g6
(lp187
g24
ag19
ag13
ag120
asba(iworkloadfiles.workloads
Workload
p188
(dp189
g6
(lp190
g8
ag24
ag30
ag26
asba(iworkloadfiles.workloads
Workload
p191
(dp192
g6
(lp193
g125
aS's6-gcc'
p194
ag10
ag24
asba(iworkloadfiles.workloads
Workload
p195
(dp196
g6
(lp197
g26
ag8
ag26
ag25
asba(iworkloadfiles.workloads
Workload
p198
(dp199
g6
(lp200
g19
ag125
ag12
ag31
asbasg35
(lp201
(iworkloadfiles.workloads
Workload
p202
(dp203
g6
(lp204
g40
ag44
ag43
ag41
asba(iworkloadfiles.workloads
Workload
p205
(dp206
g6
(lp207
g41
ag43
ag44
ag43
asba(iworkloadfiles.workloads
Workload
p208
(dp209
g6
(lp210
g44
ag42
ag43
ag44
asba(iworkloadfiles.workloads
Workload
p211
(dp212
g6
(lp213
g44
ag41
ag43
ag44
asba(iworkloadfiles.workloads
Workload
p214
(dp215
g6
(lp216
g43
ag41
ag44
ag41
asbasg57
(lp217
(iworkloadfiles.workloads
Workload
p218
(dp219
g6
(lp220
g67
ag64
ag73
ag72
asba(iworkloadfiles.workloads
Workload
p221
(dp222
g6
(lp223
g72
ag62
ag66
ag64
asba(iworkloadfiles.workloads
Workload
p224
(dp225
g6
(lp226
g64
ag67
ag65
ag66
asba(iworkloadfiles.workloads
Workload
p227
(dp228
g6
(lp229
g62
ag64
ag67
ag63
asba(iworkloadfiles.workloads
Workload
p230
(dp231
g6
(lp232
g73
ag64
ag65
ag67
asbasg83
(lp233
(iworkloadfiles.workloads
Workload
p234
(dp235
g6
(lp236
g109
ag93
ag99
ag90
asba(iworkloadfiles.workloads
Workload
p237
(dp238
g6
(lp239
g88
ag104
ag91
ag113
asba(iworkloadfiles.workloads
Workload
p240
(dp241
g6
(lp242
g109
ag98
ag88
ag89
asba(iworkloadfiles.workloads
Workload
p243
(dp244
g6
(lp245
g94
ag113
ag98
ag91
asba(iworkloadfiles.workloads
Workload
p246
(dp247
g6
(lp248
g91
ag92
ag99
ag104
asbass.