(dp0
I8
(dp1
S'h'
p2
(lp3
(iworkloadfiles.workloads
Workload
p4
(dp5
S'benchmarks'
p6
(lp7
S'art0'
p8
aS's6-hmmer'
p9
ag9
aS'ammp0'
p10
ag9
ag9
aS's6-sphinx3'
p11
ag9
asba(iworkloadfiles.workloads
Workload
p12
(dp13
g6
(lp14
g8
ag11
ag10
aS's6-omnetpp'
p15
aS'facerec0'
p16
ag11
ag15
ag9
asba(iworkloadfiles.workloads
Workload
p17
(dp18
g6
(lp19
g16
aS'galgel0'
p20
aS'apsi0'
p21
ag10
ag9
ag9
ag21
ag8
asba(iworkloadfiles.workloads
Workload
p22
(dp23
g6
(lp24
g9
ag16
ag15
ag15
ag10
ag15
ag20
ag11
asba(iworkloadfiles.workloads
Workload
p25
(dp26
g6
(lp27
g10
ag10
ag16
ag8
ag9
ag20
ag9
ag21
asba(iworkloadfiles.workloads
Workload
p28
(dp29
g6
(lp30
g15
ag8
ag15
ag11
ag16
ag11
ag21
ag15
asba(iworkloadfiles.workloads
Workload
p31
(dp32
g6
(lp33
g8
ag20
ag8
ag15
ag10
ag11
ag15
ag9
asba(iworkloadfiles.workloads
Workload
p34
(dp35
g6
(lp36
g11
ag8
ag9
ag10
ag9
ag8
ag16
ag8
asba(iworkloadfiles.workloads
Workload
p37
(dp38
g6
(lp39
g20
ag9
ag8
ag9
ag21
ag8
ag15
ag21
asba(iworkloadfiles.workloads
Workload
p40
(dp41
g6
(lp42
g10
ag20
ag15
ag10
ag11
ag10
ag21
ag8
asba(iworkloadfiles.workloads
Workload
p43
(dp44
g6
(lp45
g11
ag21
ag21
ag16
ag16
ag21
ag16
ag15
asba(iworkloadfiles.workloads
Workload
p46
(dp47
g6
(lp48
g21
ag8
ag16
ag10
ag21
ag8
ag8
ag9
asba(iworkloadfiles.workloads
Workload
p49
(dp50
g6
(lp51
g9
ag11
ag16
ag11
ag11
ag20
ag11
ag10
asba(iworkloadfiles.workloads
Workload
p52
(dp53
g6
(lp54
g20
ag15
ag16
ag9
ag11
ag21
ag16
ag8
asba(iworkloadfiles.workloads
Workload
p55
(dp56
g6
(lp57
g15
ag20
ag9
ag20
ag9
ag15
ag10
ag11
asbasS's'
p58
(lp59
(iworkloadfiles.workloads
Workload
p60
(dp61
g6
(lp62
S'lucas0'
p63
aS's6-milc'
p64
aS's6-gemsFDTD'
p65
ag65
aS's6-mcf'
p66
ag63
aS'swim0'
p67
aS's6-libquantum'
p68
asba(iworkloadfiles.workloads
Workload
p69
(dp70
g6
(lp71
g64
ag64
aS'applu0'
p72
aS'mgrid0'
p73
ag73
aS'wupwise0'
p74
ag64
ag63
asba(iworkloadfiles.workloads
Workload
p75
(dp76
g6
(lp77
g73
ag66
aS's6-leslie3d'
p78
ag63
ag78
ag65
ag68
ag64
asba(iworkloadfiles.workloads
Workload
p79
(dp80
g6
(lp81
g68
ag64
ag73
ag64
ag64
ag65
ag68
ag68
asba(iworkloadfiles.workloads
Workload
p82
(dp83
g6
(lp84
g68
ag67
ag67
ag63
ag67
ag66
ag74
ag66
asbasS'm'
p85
(lp86
(iworkloadfiles.workloads
Workload
p87
(dp88
g6
(lp89
S's6-gcc'
p90
aS's6-soplex'
p91
aS's6-bzip2'
p92
aS's6-cactusADM'
p93
ag90
ag92
aS's6-lbm'
p94
ag91
asba(iworkloadfiles.workloads
Workload
p95
(dp96
g6
(lp97
S's6-calculix'
p98
ag94
aS's6-gromacs'
p99
aS's6-zeusmp'
p100
aS'twolf0'
p101
aS's6-astar'
p102
ag92
aS'vpr0'
p103
asba(iworkloadfiles.workloads
Workload
p104
(dp105
g6
(lp106
S'gcc0'
p107
aS'mesa0'
p108
aS'equake0'
p109
aS'gap0'
p110
ag108
ag107
ag107
ag90
asba(iworkloadfiles.workloads
Workload
p111
(dp112
g6
(lp113
g99
ag93
ag92
ag108
ag107
ag99
ag99
ag102
asba(iworkloadfiles.workloads
Workload
p114
(dp115
g6
(lp116
g103
ag100
ag103
ag107
ag101
ag101
ag94
ag98
asba(iworkloadfiles.workloads
Workload
p117
(dp118
g6
(lp119
g99
ag100
ag98
ag98
ag92
ag110
ag107
ag101
asba(iworkloadfiles.workloads
Workload
p120
(dp121
g6
(lp122
g100
ag107
aS'parser0'
p123
ag102
ag123
ag107
ag93
ag98
asba(iworkloadfiles.workloads
Workload
p124
(dp125
g6
(lp126
g92
ag109
ag103
ag91
ag98
ag123
ag102
ag108
asba(iworkloadfiles.workloads
Workload
p127
(dp128
g6
(lp129
g94
ag98
ag93
ag94
ag108
ag100
ag92
ag100
asba(iworkloadfiles.workloads
Workload
p130
(dp131
g6
(lp132
g103
ag108
ag101
ag109
ag109
ag108
ag92
ag108
asba(iworkloadfiles.workloads
Workload
p133
(dp134
g6
(lp135
g99
ag99
ag110
ag110
ag107
ag101
ag108
ag93
asba(iworkloadfiles.workloads
Workload
p136
(dp137
g6
(lp138
g98
ag101
ag94
ag93
ag107
ag93
ag109
ag99
asba(iworkloadfiles.workloads
Workload
p139
(dp140
g6
(lp141
g102
ag123
ag107
ag99
ag94
ag101
ag100
ag100
asba(iworkloadfiles.workloads
Workload
p142
(dp143
g6
(lp144
g108
ag123
ag94
ag109
ag123
ag108
ag107
ag107
asba(iworkloadfiles.workloads
Workload
p145
(dp146
g6
(lp147
g101
ag108
ag92
ag90
ag92
ag91
ag91
ag92
asbasS'l'
p148
(lp149
(iworkloadfiles.workloads
Workload
p150
(dp151
g6
(lp152
S's6-gobmk'
p153
aS'perlbmk0'
p154
aS'gzip0'
p155
aS'eon0'
p156
ag156
ag156
aS's6-h264ref'
p157
aS'crafty0'
p158
asba(iworkloadfiles.workloads
Workload
p159
(dp160
g6
(lp161
g154
ag153
ag156
ag158
ag156
aS'sixtrack0'
p162
aS's6-sjeng'
p163
aS's6-dealII'
p164
asba(iworkloadfiles.workloads
Workload
p165
(dp166
g6
(lp167
g162
ag162
aS'bzip0'
p168
ag158
aS'vortex10'
p169
aS's6-gamess'
p170
ag155
ag158
asba(iworkloadfiles.workloads
Workload
p171
(dp172
g6
(lp173
S's6-povray'
p174
aS's6-wrf'
p175
ag158
aS's6-namd'
p176
ag163
ag169
ag169
ag169
asba(iworkloadfiles.workloads
Workload
p177
(dp178
g6
(lp179
g176
ag164
ag176
aS's6-bwaves'
p180
ag170
ag170
ag176
ag176
asbassI2
(dp181
g2
(lp182
(iworkloadfiles.workloads
Workload
p183
(dp184
g6
(lp185
g11
ag10
asba(iworkloadfiles.workloads
Workload
p186
(dp187
g6
(lp188
g20
ag10
asba(iworkloadfiles.workloads
Workload
p189
(dp190
g6
(lp191
g9
ag11
asba(iworkloadfiles.workloads
Workload
p192
(dp193
g6
(lp194
g20
ag15
asba(iworkloadfiles.workloads
Workload
p195
(dp196
g6
(lp197
g16
ag21
asba(iworkloadfiles.workloads
Workload
p198
(dp199
g6
(lp200
g8
ag11
asba(iworkloadfiles.workloads
Workload
p201
(dp202
g6
(lp203
g15
ag9
asba(iworkloadfiles.workloads
Workload
p204
(dp205
g6
(lp206
g15
ag11
asba(iworkloadfiles.workloads
Workload
p207
(dp208
g6
(lp209
g10
ag20
asba(iworkloadfiles.workloads
Workload
p210
(dp211
g6
(lp212
g21
ag15
asba(iworkloadfiles.workloads
Workload
p213
(dp214
g6
(lp215
g11
ag15
asba(iworkloadfiles.workloads
Workload
p216
(dp217
g6
(lp218
g10
ag10
asba(iworkloadfiles.workloads
Workload
p219
(dp220
g6
(lp221
g20
ag8
asba(iworkloadfiles.workloads
Workload
p222
(dp223
g6
(lp224
g15
ag8
asba(iworkloadfiles.workloads
Workload
p225
(dp226
g6
(lp227
g21
ag15
asbasg58
(lp228
(iworkloadfiles.workloads
Workload
p229
(dp230
g6
(lp231
g65
ag72
asba(iworkloadfiles.workloads
Workload
p232
(dp233
g6
(lp234
g72
ag73
asba(iworkloadfiles.workloads
Workload
p235
(dp236
g6
(lp237
g65
ag78
asba(iworkloadfiles.workloads
Workload
p238
(dp239
g6
(lp240
g65
ag66
asba(iworkloadfiles.workloads
Workload
p241
(dp242
g6
(lp243
g78
ag66
asbasg85
(lp244
(iworkloadfiles.workloads
Workload
p245
(dp246
g6
(lp247
g90
ag93
asba(iworkloadfiles.workloads
Workload
p248
(dp249
g6
(lp250
g110
ag98
asba(iworkloadfiles.workloads
Workload
p251
(dp252
g6
(lp253
g100
ag123
asba(iworkloadfiles.workloads
Workload
p254
(dp255
g6
(lp256
g109
ag108
asba(iworkloadfiles.workloads
Workload
p257
(dp258
g6
(lp259
g108
ag90
asba(iworkloadfiles.workloads
Workload
p260
(dp261
g6
(lp262
g92
ag91
asba(iworkloadfiles.workloads
Workload
p263
(dp264
g6
(lp265
g123
ag108
asba(iworkloadfiles.workloads
Workload
p266
(dp267
g6
(lp268
g90
ag107
asba(iworkloadfiles.workloads
Workload
p269
(dp270
g6
(lp271
g110
ag108
asba(iworkloadfiles.workloads
Workload
p272
(dp273
g6
(lp274
g92
ag90
asba(iworkloadfiles.workloads
Workload
p275
(dp276
g6
(lp277
g94
ag94
asba(iworkloadfiles.workloads
Workload
p278
(dp279
g6
(lp280
g91
ag93
asba(iworkloadfiles.workloads
Workload
p281
(dp282
g6
(lp283
g90
ag110
asba(iworkloadfiles.workloads
Workload
p284
(dp285
g6
(lp286
g101
ag107
asba(iworkloadfiles.workloads
Workload
p287
(dp288
g6
(lp289
g123
ag109
asbasg148
(lp290
(iworkloadfiles.workloads
Workload
p291
(dp292
g6
(lp293
g175
ag169
asba(iworkloadfiles.workloads
Workload
p294
(dp295
g6
(lp296
g153
ag158
asba(iworkloadfiles.workloads
Workload
p297
(dp298
g6
(lp299
g174
ag170
asba(iworkloadfiles.workloads
Workload
p300
(dp301
g6
(lp302
g164
ag154
asba(iworkloadfiles.workloads
Workload
p303
(dp304
g6
(lp305
g154
ag170
asbassI4
(dp306
g2
(lp307
(iworkloadfiles.workloads
Workload
p308
(dp309
g6
(lp310
g9
ag15
ag8
ag8
asba(iworkloadfiles.workloads
Workload
p311
(dp312
g6
(lp313
g21
ag8
ag20
ag21
asba(iworkloadfiles.workloads
Workload
p314
(dp315
g6
(lp316
g15
ag16
ag8
ag15
asba(iworkloadfiles.workloads
Workload
p317
(dp318
g6
(lp319
g10
ag9
ag10
ag8
asba(iworkloadfiles.workloads
Workload
p320
(dp321
g6
(lp322
g21
ag11
ag11
ag9
asba(iworkloadfiles.workloads
Workload
p323
(dp324
g6
(lp325
g15
ag10
ag9
ag15
asba(iworkloadfiles.workloads
Workload
p326
(dp327
g6
(lp328
g15
ag11
ag10
ag11
asba(iworkloadfiles.workloads
Workload
p329
(dp330
g6
(lp331
g20
ag11
ag8
ag15
asba(iworkloadfiles.workloads
Workload
p332
(dp333
g6
(lp334
g15
ag11
ag21
ag11
asba(iworkloadfiles.workloads
Workload
p335
(dp336
g6
(lp337
g8
ag11
ag15
ag21
asba(iworkloadfiles.workloads
Workload
p338
(dp339
g6
(lp340
g11
ag10
ag16
ag10
asba(iworkloadfiles.workloads
Workload
p341
(dp342
g6
(lp343
g15
ag8
ag8
ag8
asba(iworkloadfiles.workloads
Workload
p344
(dp345
g6
(lp346
g20
ag20
ag15
ag21
asba(iworkloadfiles.workloads
Workload
p347
(dp348
g6
(lp349
g10
ag16
ag20
ag21
asba(iworkloadfiles.workloads
Workload
p350
(dp351
g6
(lp352
g9
ag10
ag21
ag20
asbasg58
(lp353
(iworkloadfiles.workloads
Workload
p354
(dp355
g6
(lp356
g73
ag67
ag74
ag74
asba(iworkloadfiles.workloads
Workload
p357
(dp358
g6
(lp359
g66
ag67
ag78
ag68
asba(iworkloadfiles.workloads
Workload
p360
(dp361
g6
(lp362
g78
ag78
ag63
ag65
asba(iworkloadfiles.workloads
Workload
p363
(dp364
g6
(lp365
g67
ag73
ag72
ag74
asba(iworkloadfiles.workloads
Workload
p366
(dp367
g6
(lp368
g74
ag66
ag72
ag64
asbasg85
(lp369
(iworkloadfiles.workloads
Workload
p370
(dp371
g6
(lp372
g94
ag107
ag108
ag103
asba(iworkloadfiles.workloads
Workload
p373
(dp374
g6
(lp375
g109
ag90
ag102
ag108
asba(iworkloadfiles.workloads
Workload
p376
(dp377
g6
(lp378
g98
ag109
ag110
ag92
asba(iworkloadfiles.workloads
Workload
p379
(dp380
g6
(lp381
g123
ag100
ag91
ag108
asba(iworkloadfiles.workloads
Workload
p382
(dp383
g6
(lp384
g92
ag93
ag110
ag110
asba(iworkloadfiles.workloads
Workload
p385
(dp386
g6
(lp387
g92
ag103
ag109
ag101
asba(iworkloadfiles.workloads
Workload
p388
(dp389
g6
(lp390
g101
ag108
ag101
ag99
asba(iworkloadfiles.workloads
Workload
p391
(dp392
g6
(lp393
g108
ag99
ag90
ag110
asba(iworkloadfiles.workloads
Workload
p394
(dp395
g6
(lp396
g103
ag108
ag102
ag110
asba(iworkloadfiles.workloads
Workload
p397
(dp398
g6
(lp399
g109
ag107
ag110
ag110
asba(iworkloadfiles.workloads
Workload
p400
(dp401
g6
(lp402
g90
ag108
ag93
ag102
asba(iworkloadfiles.workloads
Workload
p403
(dp404
g6
(lp405
g99
ag92
ag93
ag123
asba(iworkloadfiles.workloads
Workload
p406
(dp407
g6
(lp408
g101
ag107
ag91
ag107
asba(iworkloadfiles.workloads
Workload
p409
(dp410
g6
(lp411
g123
ag109
ag103
ag102
asba(iworkloadfiles.workloads
Workload
p412
(dp413
g6
(lp414
g102
ag98
ag108
ag123
asbasg148
(lp415
(iworkloadfiles.workloads
Workload
p416
(dp417
g6
(lp418
g169
aS's6-tonto'
p419
ag156
ag176
asba(iworkloadfiles.workloads
Workload
p420
(dp421
g6
(lp422
g419
ag174
ag154
ag162
asba(iworkloadfiles.workloads
Workload
p423
(dp424
g6
(lp425
g180
ag175
ag158
ag419
asba(iworkloadfiles.workloads
Workload
p426
(dp427
g6
(lp428
g174
ag154
ag168
ag158
asba(iworkloadfiles.workloads
Workload
p429
(dp430
g6
(lp431
g155
ag155
ag162
ag156
asbass.