(dp0
I8
(dp1
S'a'
p2
(lp3
(iworkloadfiles.workloads
Workload
p4
(dp5
S'benchmarks'
p6
(lp7
S'facerec0'
p8
aS'apsi0'
p9
aS'ammp0'
p10
aS's6-sphinx3'
p11
aS'galgel0'
p12
aS's6-omnetpp'
p13
aS'art0'
p14
ag8
asba(iworkloadfiles.workloads
Workload
p15
(dp16
g6
(lp17
g13
ag14
ag14
ag13
aS'mcf0'
p18
ag10
ag11
ag11
asba(iworkloadfiles.workloads
Workload
p19
(dp20
g6
(lp21
g18
ag12
ag14
ag11
aS's6-lbm'
p22
ag22
ag8
ag12
asba(iworkloadfiles.workloads
Workload
p23
(dp24
g6
(lp25
g22
ag13
ag9
ag11
ag9
ag18
ag22
ag14
asba(iworkloadfiles.workloads
Workload
p26
(dp27
g6
(lp28
g9
ag11
ag12
ag12
ag18
ag10
ag14
ag9
asba(iworkloadfiles.workloads
Workload
p29
(dp30
g6
(lp31
g13
ag12
ag9
ag14
ag10
ag11
ag22
ag18
asba(iworkloadfiles.workloads
Workload
p32
(dp33
g6
(lp34
g8
ag14
ag18
ag13
ag9
ag14
ag13
ag10
asba(iworkloadfiles.workloads
Workload
p35
(dp36
g6
(lp37
g8
ag18
ag18
ag22
ag11
ag10
ag22
ag9
asba(iworkloadfiles.workloads
Workload
p38
(dp39
g6
(lp40
g12
ag12
ag14
ag11
ag22
ag22
ag11
ag12
asba(iworkloadfiles.workloads
Workload
p41
(dp42
g6
(lp43
g14
ag18
ag22
ag22
ag8
ag9
ag12
ag11
asbasS'c'
p44
(lp45
(iworkloadfiles.workloads
Workload
p46
(dp47
g6
(lp48
S's6-hmmer'
p49
aS'parser0'
p50
ag49
aS's6-soplex'
p51
aS's6-gromacs'
p52
ag50
aS'vpr0'
p53
ag49
asba(iworkloadfiles.workloads
Workload
p54
(dp55
g6
(lp56
S's6-astar'
p57
aS'twolf0'
p58
ag52
ag52
ag57
ag50
ag50
ag53
asba(iworkloadfiles.workloads
Workload
p59
(dp60
g6
(lp61
g50
ag49
ag52
ag53
ag58
ag57
ag50
ag57
asba(iworkloadfiles.workloads
Workload
p62
(dp63
g6
(lp64
g49
ag50
ag57
ag53
ag52
ag52
ag53
ag58
asba(iworkloadfiles.workloads
Workload
p65
(dp66
g6
(lp67
g50
ag51
ag49
ag53
ag50
ag52
ag49
ag52
asba(iworkloadfiles.workloads
Workload
p68
(dp69
g6
(lp70
g57
ag51
ag57
ag51
ag51
ag57
ag52
ag49
asba(iworkloadfiles.workloads
Workload
p71
(dp72
g6
(lp73
g52
ag49
ag51
ag52
ag49
ag50
ag50
ag57
asba(iworkloadfiles.workloads
Workload
p74
(dp75
g6
(lp76
g52
ag49
ag57
ag50
ag53
ag58
ag50
ag58
asba(iworkloadfiles.workloads
Workload
p77
(dp78
g6
(lp79
g49
ag53
ag50
ag57
ag57
ag53
ag58
ag49
asba(iworkloadfiles.workloads
Workload
p80
(dp81
g6
(lp82
g58
ag50
ag58
ag51
ag57
ag57
ag52
ag52
asbasS'b'
p83
(lp84
(iworkloadfiles.workloads
Workload
p85
(dp86
g6
(lp87
S's6-leslie3d'
p88
aS's6-gemsFDTD'
p89
aS's6-cactusADM'
p90
ag88
aS'wupwise0'
p91
aS's6-zeusmp'
p92
aS'equake0'
p93
ag89
asba(iworkloadfiles.workloads
Workload
p94
(dp95
g6
(lp96
g90
ag88
ag90
aS'applu0'
p97
ag90
aS'swim0'
p98
ag88
ag88
asba(iworkloadfiles.workloads
Workload
p99
(dp100
g6
(lp101
S'mgrid0'
p102
ag90
aS'lucas0'
p103
ag97
ag90
ag102
ag91
ag102
asba(iworkloadfiles.workloads
Workload
p104
(dp105
g6
(lp106
g93
ag88
ag89
ag97
aS's6-milc'
p107
ag103
ag89
aS's6-mcf'
p108
asba(iworkloadfiles.workloads
Workload
p109
(dp110
g6
(lp111
g89
ag98
ag89
ag102
ag89
ag97
ag98
ag103
asba(iworkloadfiles.workloads
Workload
p112
(dp113
g6
(lp114
g92
ag93
aS's6-libquantum'
p115
ag108
ag103
ag115
ag97
ag92
asba(iworkloadfiles.workloads
Workload
p116
(dp117
g6
(lp118
g91
ag89
ag108
ag92
ag92
ag107
ag93
ag91
asba(iworkloadfiles.workloads
Workload
p119
(dp120
g6
(lp121
g107
ag93
ag93
ag88
ag92
ag97
ag93
ag103
asba(iworkloadfiles.workloads
Workload
p122
(dp123
g6
(lp124
g103
ag97
ag98
ag103
ag89
ag107
ag88
ag107
asba(iworkloadfiles.workloads
Workload
p125
(dp126
g6
(lp127
g97
ag115
ag91
ag97
ag103
ag115
ag107
ag108
asbasS'n'
p128
(lp129
(iworkloadfiles.workloads
Workload
p130
(dp131
g6
(lp132
S'mesa0'
p133
aS'gzip0'
p134
aS'sixtrack0'
p135
aS's6-namd'
p136
aS's6-povray'
p137
aS's6-tonto'
p138
aS'vortex10'
p139
aS's6-gamess'
p140
asba(iworkloadfiles.workloads
Workload
p141
(dp142
g6
(lp143
S's6-gobmk'
p144
aS's6-sjeng'
p145
aS'gap0'
p146
ag146
ag139
ag134
ag135
aS's6-bwaves'
p147
asba(iworkloadfiles.workloads
Workload
p148
(dp149
g6
(lp150
g133
aS'eon0'
p151
aS's6-bzip2'
p152
ag151
ag145
ag134
ag133
ag144
asba(iworkloadfiles.workloads
Workload
p153
(dp154
g6
(lp155
g134
aS's6-h264ref'
p156
ag151
ag152
aS'gcc0'
p157
ag133
ag146
aS'fma3d0'
p158
asba(iworkloadfiles.workloads
Workload
p159
(dp160
g6
(lp161
g136
ag133
ag136
aS's6-dealII'
p162
aS'bzip0'
p163
ag157
ag134
aS's6-gcc'
p164
asba(iworkloadfiles.workloads
Workload
p165
(dp166
g6
(lp167
S's6-wrf'
p168
ag135
ag156
ag136
ag156
ag136
ag138
aS'perlbmk0'
p169
asba(iworkloadfiles.workloads
Workload
p170
(dp171
g6
(lp172
g134
ag151
ag151
ag147
ag144
ag146
ag147
ag136
asba(iworkloadfiles.workloads
Workload
p173
(dp174
g6
(lp175
g169
ag145
ag140
aS'crafty0'
p176
ag162
ag168
ag176
ag134
asba(iworkloadfiles.workloads
Workload
p177
(dp178
g6
(lp179
g158
ag147
ag138
ag133
ag140
ag157
ag147
ag156
asba(iworkloadfiles.workloads
Workload
p180
(dp181
g6
(lp182
g176
ag136
ag137
ag145
ag176
ag168
ag136
ag135
asbassI2
(dp183
g2
(lp184
(iworkloadfiles.workloads
Workload
p185
(dp186
g6
(lp187
g9
ag18
asba(iworkloadfiles.workloads
Workload
p188
(dp189
g6
(lp190
g14
ag14
asba(iworkloadfiles.workloads
Workload
p191
(dp192
g6
(lp193
g13
ag13
asba(iworkloadfiles.workloads
Workload
p194
(dp195
g6
(lp196
g11
ag18
asba(iworkloadfiles.workloads
Workload
p197
(dp198
g6
(lp199
g8
ag18
asba(iworkloadfiles.workloads
Workload
p200
(dp201
g6
(lp202
g12
ag10
asba(iworkloadfiles.workloads
Workload
p203
(dp204
g6
(lp205
g18
ag12
asba(iworkloadfiles.workloads
Workload
p206
(dp207
g6
(lp208
g9
ag10
asba(iworkloadfiles.workloads
Workload
p209
(dp210
g6
(lp211
g12
ag9
asba(iworkloadfiles.workloads
Workload
p212
(dp213
g6
(lp214
g22
ag18
asbasg44
(lp215
(iworkloadfiles.workloads
Workload
p216
(dp217
g6
(lp218
g57
ag53
asba(iworkloadfiles.workloads
Workload
p219
(dp220
g6
(lp221
g50
ag58
asba(iworkloadfiles.workloads
Workload
p222
(dp223
g6
(lp224
g53
ag50
asba(iworkloadfiles.workloads
Workload
p225
(dp226
g6
(lp227
g53
ag50
asba(iworkloadfiles.workloads
Workload
p228
(dp229
g6
(lp230
g57
ag58
asba(iworkloadfiles.workloads
Workload
p231
(dp232
g6
(lp233
g58
ag50
asba(iworkloadfiles.workloads
Workload
p234
(dp235
g6
(lp236
g50
ag51
asba(iworkloadfiles.workloads
Workload
p237
(dp238
g6
(lp239
g57
ag57
asba(iworkloadfiles.workloads
Workload
p240
(dp241
g6
(lp242
g50
ag52
asba(iworkloadfiles.workloads
Workload
p243
(dp244
g6
(lp245
g50
ag58
asbasg83
(lp246
(iworkloadfiles.workloads
Workload
p247
(dp248
g6
(lp249
g90
ag92
asba(iworkloadfiles.workloads
Workload
p250
(dp251
g6
(lp252
g93
ag102
asba(iworkloadfiles.workloads
Workload
p253
(dp254
g6
(lp255
g89
ag93
asba(iworkloadfiles.workloads
Workload
p256
(dp257
g6
(lp258
g98
ag98
asba(iworkloadfiles.workloads
Workload
p259
(dp260
g6
(lp261
g88
ag115
asba(iworkloadfiles.workloads
Workload
p262
(dp263
g6
(lp264
g90
ag92
asba(iworkloadfiles.workloads
Workload
p265
(dp266
g6
(lp267
g108
ag89
asba(iworkloadfiles.workloads
Workload
p268
(dp269
g6
(lp270
g93
ag115
asba(iworkloadfiles.workloads
Workload
p271
(dp272
g6
(lp273
g90
ag107
asba(iworkloadfiles.workloads
Workload
p274
(dp275
g6
(lp276
g88
ag115
asbasg128
(lp277
(iworkloadfiles.workloads
Workload
p278
(dp279
g6
(lp280
g168
ag156
asba(iworkloadfiles.workloads
Workload
p281
(dp282
g6
(lp283
g144
ag147
asba(iworkloadfiles.workloads
Workload
p284
(dp285
g6
(lp286
g137
ag136
asba(iworkloadfiles.workloads
Workload
p287
(dp288
g6
(lp289
g146
ag134
asba(iworkloadfiles.workloads
Workload
p290
(dp291
g6
(lp292
g158
ag163
asba(iworkloadfiles.workloads
Workload
p293
(dp294
g6
(lp295
g146
ag138
asba(iworkloadfiles.workloads
Workload
p296
(dp297
g6
(lp298
S's6-calculix'
p299
ag158
asba(iworkloadfiles.workloads
Workload
p300
(dp301
g6
(lp302
g156
ag133
asba(iworkloadfiles.workloads
Workload
p303
(dp304
g6
(lp305
g299
ag152
asba(iworkloadfiles.workloads
Workload
p306
(dp307
g6
(lp308
g163
ag146
asbassI4
(dp309
g2
(lp310
(iworkloadfiles.workloads
Workload
p311
(dp312
g6
(lp313
g9
ag14
ag9
ag11
asba(iworkloadfiles.workloads
Workload
p314
(dp315
g6
(lp316
g8
ag12
ag11
ag10
asba(iworkloadfiles.workloads
Workload
p317
(dp318
g6
(lp319
g18
ag18
ag18
ag9
asba(iworkloadfiles.workloads
Workload
p320
(dp321
g6
(lp322
g22
ag8
ag18
ag8
asba(iworkloadfiles.workloads
Workload
p323
(dp324
g6
(lp325
g11
ag10
ag11
ag22
asba(iworkloadfiles.workloads
Workload
p326
(dp327
g6
(lp328
g18
ag13
ag13
ag10
asba(iworkloadfiles.workloads
Workload
p329
(dp330
g6
(lp331
g14
ag9
ag12
ag8
asba(iworkloadfiles.workloads
Workload
p332
(dp333
g6
(lp334
g10
ag11
ag22
ag14
asba(iworkloadfiles.workloads
Workload
p335
(dp336
g6
(lp337
g10
ag12
ag11
ag22
asba(iworkloadfiles.workloads
Workload
p338
(dp339
g6
(lp340
g14
ag9
ag9
ag12
asbasg44
(lp341
(iworkloadfiles.workloads
Workload
p342
(dp343
g6
(lp344
g53
ag57
ag50
ag51
asba(iworkloadfiles.workloads
Workload
p345
(dp346
g6
(lp347
g51
ag53
ag50
ag57
asba(iworkloadfiles.workloads
Workload
p348
(dp349
g6
(lp350
g50
ag53
ag51
ag49
asba(iworkloadfiles.workloads
Workload
p351
(dp352
g6
(lp353
g49
ag52
ag52
ag50
asba(iworkloadfiles.workloads
Workload
p354
(dp355
g6
(lp356
g53
ag49
ag58
ag49
asba(iworkloadfiles.workloads
Workload
p357
(dp358
g6
(lp359
g52
ag57
ag51
ag53
asba(iworkloadfiles.workloads
Workload
p360
(dp361
g6
(lp362
g58
ag58
ag51
ag50
asba(iworkloadfiles.workloads
Workload
p363
(dp364
g6
(lp365
g50
ag49
ag58
ag50
asba(iworkloadfiles.workloads
Workload
p366
(dp367
g6
(lp368
g50
ag51
ag49
ag51
asba(iworkloadfiles.workloads
Workload
p369
(dp370
g6
(lp371
g49
ag53
ag51
ag52
asbasg83
(lp372
(iworkloadfiles.workloads
Workload
p373
(dp374
g6
(lp375
g92
ag115
ag90
ag108
asba(iworkloadfiles.workloads
Workload
p376
(dp377
g6
(lp378
g91
ag93
ag91
ag89
asba(iworkloadfiles.workloads
Workload
p379
(dp380
g6
(lp381
g88
ag90
ag97
ag91
asba(iworkloadfiles.workloads
Workload
p382
(dp383
g6
(lp384
g88
ag89
ag98
ag108
asba(iworkloadfiles.workloads
Workload
p385
(dp386
g6
(lp387
g91
ag92
ag92
ag98
asba(iworkloadfiles.workloads
Workload
p388
(dp389
g6
(lp390
g108
ag115
ag97
ag88
asba(iworkloadfiles.workloads
Workload
p391
(dp392
g6
(lp393
g103
ag102
ag115
ag92
asba(iworkloadfiles.workloads
Workload
p394
(dp395
g6
(lp396
g102
ag93
ag89
ag107
asba(iworkloadfiles.workloads
Workload
p397
(dp398
g6
(lp399
g103
ag108
ag98
ag102
asba(iworkloadfiles.workloads
Workload
p400
(dp401
g6
(lp402
g93
ag115
ag102
ag102
asbasg128
(lp403
(iworkloadfiles.workloads
Workload
p404
(dp405
g6
(lp406
g168
ag138
ag137
ag151
asba(iworkloadfiles.workloads
Workload
p407
(dp408
g6
(lp409
g152
ag146
ag133
ag157
asba(iworkloadfiles.workloads
Workload
p410
(dp411
g6
(lp412
g133
ag168
ag163
ag136
asba(iworkloadfiles.workloads
Workload
p413
(dp414
g6
(lp415
g139
ag139
ag138
ag168
asba(iworkloadfiles.workloads
Workload
p416
(dp417
g6
(lp418
g144
ag140
ag151
ag158
asba(iworkloadfiles.workloads
Workload
p419
(dp420
g6
(lp421
g168
ag144
ag144
ag140
asba(iworkloadfiles.workloads
Workload
p422
(dp423
g6
(lp424
g157
ag145
ag164
ag137
asba(iworkloadfiles.workloads
Workload
p425
(dp426
g6
(lp427
g151
ag168
ag157
ag169
asba(iworkloadfiles.workloads
Workload
p428
(dp429
g6
(lp430
g145
ag147
ag146
ag176
asba(iworkloadfiles.workloads
Workload
p431
(dp432
g6
(lp433
g299
ag146
ag145
ag145
asbass.