(dp0
I4
(dp1
S'h'
p2
(lp3
(iworkloadfiles.workloads
Workload
p4
(dp5
S'benchmarks'
p6
(lp7
S's6-sphinx3'
p8
aS's6-lbm'
p9
aS'twolf0'
p10
aS'mesa0'
p11
asba(iworkloadfiles.workloads
Workload
p12
(dp13
g6
(lp14
S'art0'
p15
ag8
ag10
aS'lucas0'
p16
asba(iworkloadfiles.workloads
Workload
p17
(dp18
g6
(lp19
S'facerec0'
p20
aS'apsi0'
p21
aS's6-bzip2'
p22
aS'eon0'
p23
asba(iworkloadfiles.workloads
Workload
p24
(dp25
g6
(lp26
S's6-omnetpp'
p27
ag15
aS'equake0'
p28
aS'swim0'
p29
asba(iworkloadfiles.workloads
Workload
p30
(dp31
g6
(lp32
g9
aS'galgel0'
p33
aS's6-gromacs'
p34
aS's6-soplex'
p35
asba(iworkloadfiles.workloads
Workload
p36
(dp37
g6
(lp38
g8
ag27
aS'parser0'
p39
aS's6-gemsFDTD'
p40
asba(iworkloadfiles.workloads
Workload
p41
(dp42
g6
(lp43
g33
aS'ammp0'
p44
ag28
aS'gzip0'
p45
asba(iworkloadfiles.workloads
Workload
p46
(dp47
g6
(lp48
g21
ag27
ag22
aS'perlbmk0'
p49
asba(iworkloadfiles.workloads
Workload
p50
(dp51
g6
(lp52
g27
ag33
ag22
aS's6-leslie3d'
p53
asba(iworkloadfiles.workloads
Workload
p54
(dp55
g6
(lp56
g44
ag9
ag34
ag40
asbasS'm'
p57
(lp58
(iworkloadfiles.workloads
Workload
p59
(dp60
g6
(lp61
g21
ag39
ag10
aS'mgrid0'
p62
asba(iworkloadfiles.workloads
Workload
p63
(dp64
g6
(lp65
g15
ag28
ag10
aS's6-calculix'
p66
asba(iworkloadfiles.workloads
Workload
p67
(dp68
g6
(lp69
g21
aS'vpr0'
p70
ag28
aS's6-gobmk'
p71
asba(iworkloadfiles.workloads
Workload
p72
(dp73
g6
(lp74
g33
ag34
aS's6-astar'
p75
ag40
asba(iworkloadfiles.workloads
Workload
p76
(dp77
g6
(lp78
g33
ag70
ag34
aS'fma3d0'
p79
asba(iworkloadfiles.workloads
Workload
p80
(dp81
g6
(lp82
g15
ag28
ag39
aS's6-sjeng'
p83
asba(iworkloadfiles.workloads
Workload
p84
(dp85
g6
(lp86
g9
ag22
ag75
ag71
asba(iworkloadfiles.workloads
Workload
p87
(dp88
g6
(lp89
g27
ag34
ag10
aS's6-gamess'
p90
asba(iworkloadfiles.workloads
Workload
p91
(dp92
g6
(lp93
g20
ag28
ag22
ag45
asba(iworkloadfiles.workloads
Workload
p94
(dp95
g6
(lp96
g27
ag28
ag39
ag71
asbasS'l'
p97
(lp98
(iworkloadfiles.workloads
Workload
p99
(dp100
g6
(lp101
g27
ag22
aS'vortex10'
p102
ag83
asba(iworkloadfiles.workloads
Workload
p103
(dp104
g6
(lp105
g44
ag10
aS'applu0'
p106
aS's6-gcc'
p107
asba(iworkloadfiles.workloads
Workload
p108
(dp109
g6
(lp110
g20
ag22
ag35
ag40
asba(iworkloadfiles.workloads
Workload
p111
(dp112
g6
(lp113
g15
ag39
ag45
ag107
asba(iworkloadfiles.workloads
Workload
p114
(dp115
g6
(lp116
g8
ag70
aS's6-tonto'
p117
ag16
asba(iworkloadfiles.workloads
Workload
p118
(dp119
g6
(lp120
g9
aS's6-hmmer'
p121
ag107
aS's6-milc'
p122
asba(iworkloadfiles.workloads
Workload
p123
(dp124
g6
(lp125
g9
ag70
aS'sixtrack0'
p126
ag29
asba(iworkloadfiles.workloads
Workload
p127
(dp128
g6
(lp129
g44
ag28
ag16
ag29
asba(iworkloadfiles.workloads
Workload
p130
(dp131
g6
(lp132
g21
ag70
ag102
ag29
asba(iworkloadfiles.workloads
Workload
p133
(dp134
g6
(lp135
g27
ag34
ag29
aS's6-cactusADM'
p136
asbass.